; ModuleID = 'module'
source_filename = "module"
target datalayout = "e-m:e-i64:64-f80:128-n8:16:32:64-S128"
target triple = "x86_64-unknown-linux-gnu"

%"class.std::ios_base::Init" = type { i8 }
%"class.google::protobuf::internal::ExplicitlyConstructed" = type { %"union.google::protobuf::internal::ExplicitlyConstructed<std::basic_string<char> >::AlignedUnion" }
%"union.google::protobuf::internal::ExplicitlyConstructed<std::basic_string<char> >::AlignedUnion" = type { i64 }
%"class.sample::FooDefaultTypeInternal" = type { %"class.google::protobuf::internal::ExplicitlyConstructed.4" }
%"class.google::protobuf::internal::ExplicitlyConstructed.4" = type { %"union.google::protobuf::internal::ExplicitlyConstructed<sample::Foo>::AlignedUnion" }
%"union.google::protobuf::internal::ExplicitlyConstructed<sample::Foo>::AlignedUnion" = type { i64, [32 x i8] }
%"class.sample::PointDefaultTypeInternal" = type { %"class.google::protobuf::internal::ExplicitlyConstructed.6" }
%"class.google::protobuf::internal::ExplicitlyConstructed.6" = type { %"union.google::protobuf::internal::ExplicitlyConstructed<sample::Point>::AlignedUnion" }
%"union.google::protobuf::internal::ExplicitlyConstructed<sample::Point>::AlignedUnion" = type { i64, [24 x i8] }
%"class.sample::PointsDefaultTypeInternal" = type { %"class.google::protobuf::internal::ExplicitlyConstructed.7" }
%"class.google::protobuf::internal::ExplicitlyConstructed.7" = type { %"union.google::protobuf::internal::ExplicitlyConstructed<sample::Points>::AlignedUnion" }
%"union.google::protobuf::internal::ExplicitlyConstructed<sample::Points>::AlignedUnion" = type { i64, [40 x i8] }
%"struct.google::protobuf::Metadata" = type { %"class.google::protobuf::Descriptor"*, %"class.google::protobuf::MessageLite"* }
%"class.google::protobuf::Descriptor" = type <{ %"class.google::protobuf::internal::InternalMetadataWithArena"*, %"class.google::protobuf::internal::InternalMetadataWithArena"*, %"class.google::protobuf::FileDescriptor"*, %"class.google::protobuf::Descriptor"*, %"class.google::protobuf::MessageOptions"*, %"class.google::protobuf::FieldDescriptor"*, %"class.google::protobuf::OneofDescriptor"*, %"class.google::protobuf::Descriptor"*, %"class.google::protobuf::EnumDescriptor"*, %"struct.google::protobuf::Descriptor::ExtensionRange"*, %"class.google::protobuf::FieldDescriptor"*, %"struct.google::protobuf::EnumDescriptor::ReservedRange"*, %"class.google::protobuf::internal::InternalMetadataWithArena"**, i32, i32, i32, i32, i32, i32, i32, i32, i8, i8, [6 x i8] }>
%"class.google::protobuf::internal::InternalMetadataWithArena" = type { %"class.google::protobuf::internal::InternalMetadataWithArenaBase" }
%"class.google::protobuf::internal::InternalMetadataWithArenaBase" = type { i8* }
%"class.google::protobuf::FileDescriptor" = type { %"class.google::protobuf::internal::InternalMetadataWithArena"*, %"class.google::protobuf::internal::InternalMetadataWithArena"*, %"class.google::protobuf::DescriptorPool"*, %"union.google::protobuf::internal::ExplicitlyConstructed<std::basic_string<char> >::AlignedUnion"*, i32, i32, i32, i32, i32, i32, i32, i32, i8, i8, %"class.google::protobuf::FileDescriptor"**, %"class.google::protobuf::internal::InternalMetadataWithArena"**, i32*, i32*, %"class.google::protobuf::Descriptor"*, %"class.google::protobuf::EnumDescriptor"*, %"class.google::protobuf::ServiceDescriptor"*, %"class.google::protobuf::FieldDescriptor"*, %"class.google::protobuf::FileOptions"*, %"class.google::protobuf::FileDescriptorTables"*, %"class.google::protobuf::SourceCodeInfo"* }
%"class.google::protobuf::DescriptorPool" = type { %"class.google::protobuf::internal::Mutex"*, %"class.google::protobuf::DescriptorDatabase"*, %"class.google::protobuf::MessageLite"*, %"class.google::protobuf::DescriptorPool"*, %"class.google::protobuf::internal::scoped_ptr", i8, i8, i8, i8, i8, %"class.std::set" }
%"class.google::protobuf::internal::Mutex" = type { %"struct.google::protobuf::internal::Mutex::Internal"* }
%"struct.google::protobuf::internal::Mutex::Internal" = type opaque
%"class.google::protobuf::DescriptorDatabase" = type opaque
%"class.google::protobuf::internal::scoped_ptr" = type { %"class.google::protobuf::DescriptorPool::Tables"* }
%"class.google::protobuf::DescriptorPool::Tables" = type opaque
%"class.std::set" = type { %"class.std::_Rb_tree" }
%"class.std::_Rb_tree" = type { %"struct.std::_Rb_tree<std::basic_string<char>, std::basic_string<char>, std::_Identity<std::basic_string<char> >, std::less<std::basic_string<char> >, std::allocator<std::basic_string<char> > >::_Rb_tree_impl" }
%"struct.std::_Rb_tree<std::basic_string<char>, std::basic_string<char>, std::_Identity<std::basic_string<char> >, std::less<std::basic_string<char> >, std::allocator<std::basic_string<char> > >::_Rb_tree_impl" = type { %"class.std::ios_base::Init", %"struct.std::_Rb_tree_node_base", i64 }
%"struct.std::_Rb_tree_node_base" = type { i32, %"struct.std::_Rb_tree_node_base"*, %"struct.std::_Rb_tree_node_base"*, %"struct.std::_Rb_tree_node_base"* }
%"class.google::protobuf::ServiceDescriptor" = type <{ %"class.google::protobuf::internal::InternalMetadataWithArena"*, %"class.google::protobuf::internal::InternalMetadataWithArena"*, %"class.google::protobuf::FileDescriptor"*, %"class.google::protobuf::ServiceOptions"*, %"class.google::protobuf::MethodDescriptor"*, i32, [4 x i8] }>
%"class.google::protobuf::ServiceOptions" = type opaque
%"class.google::protobuf::MethodDescriptor" = type <{ %"class.google::protobuf::internal::InternalMetadataWithArena"*, %"class.google::protobuf::internal::InternalMetadataWithArena"*, %"class.google::protobuf::ServiceDescriptor"*, %"class.google::protobuf::internal::LazyDescriptor", %"class.google::protobuf::internal::LazyDescriptor", %"class.google::protobuf::MethodOptions"*, i8, i8, [6 x i8] }>
%"class.google::protobuf::internal::LazyDescriptor" = type { %"class.google::protobuf::Descriptor"*, %"class.google::protobuf::internal::InternalMetadataWithArena"*, %"union.google::protobuf::internal::ExplicitlyConstructed<std::basic_string<char> >::AlignedUnion"*, %"class.google::protobuf::FileDescriptor"* }
%"class.google::protobuf::MethodOptions" = type opaque
%"class.google::protobuf::FileOptions" = type opaque
%"class.google::protobuf::FileDescriptorTables" = type opaque
%"class.google::protobuf::SourceCodeInfo" = type opaque
%"class.google::protobuf::MessageOptions" = type opaque
%"class.google::protobuf::OneofDescriptor" = type { %"class.google::protobuf::internal::InternalMetadataWithArena"*, %"class.google::protobuf::internal::InternalMetadataWithArena"*, %"class.google::protobuf::Descriptor"*, i8, i32, %"class.google::protobuf::FieldDescriptor"**, %"class.google::protobuf::OneofOptions"* }
%"class.google::protobuf::OneofOptions" = type opaque
%"class.google::protobuf::EnumDescriptor" = type { %"class.google::protobuf::internal::InternalMetadataWithArena"*, %"class.google::protobuf::internal::InternalMetadataWithArena"*, %"class.google::protobuf::FileDescriptor"*, %"class.google::protobuf::Descriptor"*, %"class.google::protobuf::EnumOptions"*, i8, i8, i32, %"class.google::protobuf::EnumValueDescriptor"*, i32, i32, %"struct.google::protobuf::EnumDescriptor::ReservedRange"*, %"class.google::protobuf::internal::InternalMetadataWithArena"** }
%"class.google::protobuf::EnumOptions" = type opaque
%"class.google::protobuf::EnumValueDescriptor" = type { %"class.google::protobuf::internal::InternalMetadataWithArena"*, %"class.google::protobuf::internal::InternalMetadataWithArena"*, i32, %"class.google::protobuf::EnumDescriptor"*, %"class.google::protobuf::EnumValueOptions"* }
%"class.google::protobuf::EnumValueOptions" = type opaque
%"struct.google::protobuf::Descriptor::ExtensionRange" = type { i32, i32, %"class.google::protobuf::ExtensionRangeOptions"* }
%"class.google::protobuf::ExtensionRangeOptions" = type opaque
%"class.google::protobuf::FieldDescriptor" = type { %"class.google::protobuf::internal::InternalMetadataWithArena"*, %"class.google::protobuf::internal::InternalMetadataWithArena"*, %"class.google::protobuf::internal::InternalMetadataWithArena"*, %"class.google::protobuf::internal::InternalMetadataWithArena"*, %"class.google::protobuf::internal::InternalMetadataWithArena"*, %"class.google::protobuf::FileDescriptor"*, %"union.google::protobuf::internal::ExplicitlyConstructed<std::basic_string<char> >::AlignedUnion"*, i32, i32, i8, i8, i8, i32, i32, %"class.google::protobuf::Descriptor"*, %"class.google::protobuf::OneofDescriptor"*, %"class.google::protobuf::Descriptor"*, %"class.google::protobuf::Descriptor"*, %"class.google::protobuf::EnumDescriptor"*, %"class.google::protobuf::FieldOptions"*, %"class.google::protobuf::internal::InternalMetadataWithArena"*, %"class.google::protobuf::internal::InternalMetadataWithArena"*, %"union.google::protobuf::internal::ExplicitlyConstructed<std::basic_string<char> >::AlignedUnion" }
%"class.google::protobuf::FieldOptions" = type opaque
%"struct.google::protobuf::EnumDescriptor::ReservedRange" = type { i32, i32 }
%"class.google::protobuf::MessageLite" = type { i32 (...)** }
%"struct.google::protobuf::internal::MigrationSchema" = type { i32, i32, i32 }
%"class.google::protobuf::Message" = type { %"class.google::protobuf::MessageLite" }
%"class.sample::Foo" = type <{ %"class.google::protobuf::Message", %"class.google::protobuf::internal::InternalMetadataWithArena", %"struct.google::protobuf::internal::ArenaStringPtr", i32, float, i32, [4 x i8] }>
%"struct.google::protobuf::internal::ArenaStringPtr" = type { %"class.google::protobuf::internal::InternalMetadataWithArena"* }
%"class.sample::Points" = type <{ %"class.google::protobuf::Message", %"class.google::protobuf::internal::InternalMetadataWithArena", %"class.google::protobuf::RepeatedPtrField", i32, [4 x i8] }>
%"class.google::protobuf::RepeatedPtrField" = type { %"class.google::protobuf::internal::RepeatedPtrFieldBase" }
%"class.google::protobuf::internal::RepeatedPtrFieldBase" = type { %"class.google::protobuf::Arena"*, i32, i32, %"struct.google::protobuf::internal::RepeatedPtrFieldBase::Rep"* }
%"class.google::protobuf::Arena" = type { %"class.google::protobuf::internal::ArenaImpl", i8* (%"class.google::protobuf::Arena"*)*, void (%"class.std::type_info"*, i64, i8*)*, void (%"class.google::protobuf::Arena"*, i8*, i64)*, void (%"class.google::protobuf::Arena"*, i8*, i64)*, i8* }
%"class.google::protobuf::internal::ArenaImpl" = type { i64, i64, i64, %"struct.google::protobuf::internal::ArenaImpl::Block"*, i64, %"struct.google::protobuf::internal::ArenaImpl::Options" }
%"struct.google::protobuf::internal::ArenaImpl::Block" = type { i8*, %"struct.google::protobuf::internal::ArenaImpl::ThreadInfo"*, %"struct.google::protobuf::internal::ArenaImpl::Block"*, i64, i64 }
%"struct.google::protobuf::internal::ArenaImpl::ThreadInfo" = type { i8*, %"struct.google::protobuf::internal::ArenaImpl::Block"*, %"struct.google::protobuf::internal::ArenaImpl::CleanupChunk"*, %"struct.google::protobuf::internal::ArenaImpl::ThreadInfo"* }
%"struct.google::protobuf::internal::ArenaImpl::CleanupChunk" = type { i64, i64, %"struct.google::protobuf::internal::ArenaImpl::CleanupChunk"*, [1 x %"struct.google::protobuf::internal::ArenaImpl::CleanupNode"] }
%"struct.google::protobuf::internal::ArenaImpl::CleanupNode" = type { i8*, void (i8*)* }
%"struct.google::protobuf::internal::ArenaImpl::Options" = type { i64, i64, i8*, i64, i8* (i64)*, void (i8*, i64)* }
%"class.std::type_info" = type { i32 (...)**, i8* }
%"struct.google::protobuf::internal::RepeatedPtrFieldBase::Rep" = type { i32, [1 x i8*] }
%"class.sample::Point" = type <{ %"class.google::protobuf::Message", %"class.google::protobuf::internal::InternalMetadataWithArena", i32, i32, i32, [4 x i8] }>
%"class.sample::Bar" = type <{ %"class.google::protobuf::Message", %"class.google::protobuf::internal::InternalMetadataWithArena", %"class.sample::Foo"*, i32, float, i32, [4 x i8] }>
%"class.emp::Integer" = type { i32, %"class.emp::Bit"* }
%"class.emp::Bit" = type { <2 x i64> }
%struct.__va_list_tag = type { i32, i32, i8*, i8* }
%"struct.std::basic_string<char, std::char_traits<char>, std::allocator<char> >::_Rep" = type { %"struct.std::basic_string<char, std::char_traits<char>, std::allocator<char> >::_Rep_base" }
%"struct.std::basic_string<char, std::char_traits<char>, std::allocator<char> >::_Rep_base" = type { i64, i64, i32 }
%"class.google::protobuf::io::CodedInputStream" = type { i8*, i8*, %"class.google::protobuf::io::ZeroCopyInputStream"*, i32, i32, i32, i8, i8, i32, i32, i32, i32, i32, i8, %"class.google::protobuf::DescriptorPool"*, %"class.google::protobuf::MessageLite"* }
%"class.google::protobuf::io::ZeroCopyInputStream" = type opaque
%"class.google::protobuf::UnknownFieldSet" = type { %"class.std::vector"* }
%"class.std::vector" = type { %"struct.std::_Vector_base" }
%"struct.std::_Vector_base" = type { %"struct.std::_Vector_base<google::protobuf::UnknownField, std::allocator<google::protobuf::UnknownField> >::_Vector_impl" }
%"struct.std::_Vector_base<google::protobuf::UnknownField, std::allocator<google::protobuf::UnknownField> >::_Vector_impl" = type { %"class.google::protobuf::UnknownField"*, %"class.google::protobuf::UnknownField"*, %"class.google::protobuf::UnknownField"* }
%"class.google::protobuf::UnknownField" = type { i32, i32, %"union.google::protobuf::internal::ExplicitlyConstructed<std::basic_string<char> >::AlignedUnion" }
%"struct.std::pair" = type <{ i32, i8, [3 x i8] }>
%"struct.google::protobuf::internal::InternalMetadataWithArenaBase<google::protobuf::UnknownFieldSet, google::protobuf::internal::InternalMetadataWithArena>::Container" = type { %"class.google::protobuf::UnknownFieldSet", %"class.google::protobuf::Arena"* }
%"class.google::protobuf::io::CodedOutputStream" = type <{ %"class.google::protobuf::io::ZeroCopyOutputStream"*, i8*, i32, i32, i8, i8, i8, i8, [4 x i8] }>
%"class.google::protobuf::io::ZeroCopyOutputStream" = type opaque
%"class.google::protobuf::internal::LogMessage" = type { i32, i8*, i32, %"class.google::protobuf::internal::InternalMetadataWithArena" }
%"class.google::protobuf::internal::FunctionClosure0" = type <{ %"class.google::protobuf::MessageLite", void ()*, i8, [7 x i8] }>
%union.anon.44 = type { float }

$_ZNK6sample5Point1xEv = comdat any

$_ZNK6sample5Point1yEv = comdat any

$_ZSt9to_stringi = comdat any

$_ZN9__gnu_cxx12__to_xstringISscEET_PFiPT0_mPKS2_P13__va_list_tagEmS5_z = comdat any

$_ZNSsC2IPcEET_S1_RKSaIcE = comdat any

$_ZNSs12_S_constructIPcEES0_T_S1_RKSaIcE = comdat any

$_ZNSs16_S_construct_auxIPcEES0_T_S1_RKSaIcESt12__false_type = comdat any

$_ZNSs12_S_constructIPcEES0_T_S1_RKSaIcESt20forward_iterator_tag = comdat any

$_ZSteqIcEbRKSaIT_ES3_ = comdat any

$_ZN9__gnu_cxx17__is_null_pointerIcEEbPT_ = comdat any

$_ZSt8distanceIPcENSt15iterator_traitsIT_E15difference_typeES2_S2_ = comdat any

$_ZSt19__iterator_categoryIPcENSt15iterator_traitsIT_E17iterator_categoryERKS2_ = comdat any

$_ZSt10__distanceIPcENSt15iterator_traitsIT_E15difference_typeES2_S2_St26random_access_iterator_tag = comdat any

$_ZNK6sample3Foo3i32Ev = comdat any

$_ZN6sample3Foo7set_i32Ei = comdat any

$_ZN6sample3Foo5set_fEf = comdat any

$_ZStplIcSt11char_traitsIcESaIcEESbIT_T0_T1_EPKS3_OS6_ = comdat any

$_ZStplIcSt11char_traitsIcESaIcEESbIT_T0_T1_EOS6_PKS3_ = comdat any

$_ZStplIcSt11char_traitsIcESaIcEESbIT_T0_T1_EOS6_S7_ = comdat any

$_ZN6sample3Foo5set_sEOSs = comdat any

$_ZN6google8protobuf8internal27GetEmptyStringAlreadyInitedEv = comdat any

$_ZSt4moveIRSsEONSt16remove_referenceIT_E4typeEOS2_ = comdat any

$_ZN6google8protobuf8internal14ArenaStringPtr10SetNoArenaEPKSsOSs = comdat any

$_ZNK6google8protobuf8internal14ArenaStringPtr9IsDefaultEPKSs = comdat any

$_ZNK6google8protobuf8internal21ExplicitlyConstructedISsE3getEv = comdat any

$_ZNK6sample3Bar3i32Ev = comdat any

$_ZNK6sample3Bar3fooEv = comdat any

$_ZN6sample3Bar17set_allocated_fooEPNS_3FooE = comdat any

$_ZN6sample3Bar7set_i32Ei = comdat any

$_ZNK6sample3Bar17GetArenaNoVirtualEv = comdat any

$_ZN6google8protobuf8internal15GetOwnedMessageIN6sample3FooEEEPT_PNS0_5ArenaES6_S8_ = comdat any

$_ZN6sample6Points10add_pointsEv = comdat any

$_ZN6sample5Point5set_xEi = comdat any

$_ZN6sample5Point5set_yEi = comdat any

$_ZN6google8protobuf16RepeatedPtrFieldIN6sample5PointEE3AddEv = comdat any

$_ZN6google8protobuf8internal20RepeatedPtrFieldBase3AddINS0_16RepeatedPtrFieldIN6sample5PointEE11TypeHandlerEEEPNT_4TypeESB_ = comdat any

$_ZN6google8protobuf8internal20RepeatedPtrFieldBase4castINS0_16RepeatedPtrFieldIN6sample5PointEE11TypeHandlerEEEPNT_4TypeEPv = comdat any

$_ZN6google8protobuf8internal18GenericTypeHandlerIN6sample5PointEE16NewFromPrototypeEPKS4_PNS0_5ArenaE = comdat any

$_ZN6google8protobuf8internal18GenericTypeHandlerIN6sample5PointEE3NewEPNS0_5ArenaE = comdat any

$_ZN6google8protobuf8internal10AlignUpTo8Em = comdat any

$_ZNK6google8protobuf5Arena9AllocHookEPKSt9type_infom = comdat any

$_ZN6google8protobuf8internal21arena_destruct_objectIN6sample5PointEEEvPv = comdat any

$_ZN3emp7IntegerC2Ev = comdat any

$_ZNK6sample3Foo3NewEv = comdat any

$_ZNK6google8protobuf11MessageLite8GetArenaEv = comdat any

$_ZNK6google8protobuf11MessageLite20GetMaybeArenaPointerEv = comdat any

$_ZNK6sample3Foo13GetCachedSizeEv = comdat any

$_ZNK6google8protobuf11MessageLite16InternalGetTableEv = comdat any

$_ZNK6google8protobuf7Message13GetReflectionEv = comdat any

$_ZN6google8protobuf14GoogleOnceInitEPlPFvvE = comdat any

$_ZN6google8protobuf8internal12Acquire_LoadEPVKl = comdat any

$_ZN6google8protobuf8internal16FunctionClosure0C2EPFvvEb = comdat any

$_ZN6google8protobuf7ClosureC2Ev = comdat any

$_ZN24protobuf_Samples_2eproto12InitDefaultsEv = comdat any

$_ZN6google8protobuf7MessageC2Ev = comdat any

$_ZN6google8protobuf8internal25InternalMetadataWithArenaC2EPNS0_5ArenaE = comdat any

$_ZN6google8protobuf16RepeatedPtrFieldIN6sample5PointEEC2Ev = comdat any

$_ZN6sample6Points25internal_default_instanceEv = comdat any

$_ZN6google8protobuf16RepeatedPtrFieldIN6sample5PointEED2Ev = comdat any

$_ZN6google8protobuf8internal25InternalMetadataWithArenaD2Ev = comdat any

$_ZN6google8protobuf7MessageD2Ev = comdat any

$_ZN6google8protobuf11MessageLiteD2Ev = comdat any

$_ZN6google8protobuf8internal29InternalMetadataWithArenaBaseINS0_15UnknownFieldSetENS1_25InternalMetadataWithArenaEED2Ev = comdat any

$_ZNK6google8protobuf8internal29InternalMetadataWithArenaBaseINS0_15UnknownFieldSetENS1_25InternalMetadataWithArenaEE8PtrValueINS5_9ContainerEEEPT_v = comdat any

$_ZNK6google8protobuf8internal29InternalMetadataWithArenaBaseINS0_15UnknownFieldSetENS1_25InternalMetadataWithArenaEE8PtrValueINS0_5ArenaEEEPT_v = comdat any

$_ZN6google8protobuf8internal29InternalMetadataWithArenaBaseINS0_15UnknownFieldSetENS1_25InternalMetadataWithArenaEE9ContainerD2Ev = comdat any

$__clang_call_terminate = comdat any

$_ZN6google8protobuf15UnknownFieldSetD2Ev = comdat any

$_ZN6google8protobuf15UnknownFieldSet5ClearEv = comdat any

$_ZN6google8protobuf8internal20RepeatedPtrFieldBase7DestroyINS0_16RepeatedPtrFieldIN6sample5PointEE11TypeHandlerEEEvv = comdat any

$_ZN6google8protobuf8internal20RepeatedPtrFieldBaseD2Ev = comdat any

$_ZN6google8protobuf8internal18GenericTypeHandlerIN6sample5PointEE6DeleteEPS4_PNS0_5ArenaE = comdat any

$_ZN6google8protobuf8internal20RepeatedPtrFieldBaseC2Ev = comdat any

$_ZN6google8protobuf8internal29InternalMetadataWithArenaBaseINS0_15UnknownFieldSetENS1_25InternalMetadataWithArenaEEC2EPNS0_5ArenaE = comdat any

$_ZNK6sample6Points3NewEv = comdat any

$_ZNK6sample6Points13GetCachedSizeEv = comdat any

$_ZN6google8protobuf8internal22DynamicCastToGeneratedIKN6sample6PointsEEEPT_PKNS0_7MessageE = comdat any

$_ZN6google8protobuf8internal25InternalMetadataWithArena16default_instanceEv = comdat any

$_ZN6google8protobuf8internal25InternalMetadataWithArena11DoMergeFromERKNS0_15UnknownFieldSetE = comdat any

$_ZN6google8protobuf16RepeatedPtrFieldIN6sample5PointEE9MergeFromERKS4_ = comdat any

$_ZN6google8protobuf8internal20RepeatedPtrFieldBase9MergeFromINS0_16RepeatedPtrFieldIN6sample5PointEE11TypeHandlerEEEvRKS2_ = comdat any

$_ZN6google8protobuf8internal20RepeatedPtrFieldBase18MergeFromInnerLoopINS0_16RepeatedPtrFieldIN6sample5PointEE11TypeHandlerEEEvPPvSA_ii = comdat any

$_ZN6google8protobuf8internal20RepeatedPtrFieldBase17MergeFromInternalERKS2_MS2_FvPPvS6_iiE = comdat any

$_ZN6google8protobuf8internal18GenericTypeHandlerIN6sample5PointEE5MergeERKS4_PS4_ = comdat any

$_ZNK6google8protobuf8internal20RepeatedPtrFieldBase17GetArenaNoVirtualEv = comdat any

$_ZN6google8protobuf8internal29InternalMetadataWithArenaBaseINS0_15UnknownFieldSetENS1_25InternalMetadataWithArenaEE27mutable_unknown_fields_slowEv = comdat any

$_ZN6google8protobuf8internal29InternalMetadataWithArenaBaseINS0_15UnknownFieldSetENS1_25InternalMetadataWithArenaEE9ContainerC2Ev = comdat any

$_ZN6google8protobuf8internal21arena_destruct_objectINS1_29InternalMetadataWithArenaBaseINS0_15UnknownFieldSetENS1_25InternalMetadataWithArenaEE9ContainerEEEvPv = comdat any

$_ZN6google8protobuf15UnknownFieldSetC2Ev = comdat any

$_ZNK6sample6Points11points_sizeEv = comdat any

$_ZNK6sample6Points6pointsEi = comdat any

$_ZN6google8protobuf8internal14WireFormatLite27InternalWriteMessageToArrayEiRKNS0_11MessageLiteEbPh = comdat any

$_ZN6google8protobuf8internal32GetProto3PreserveUnknownsDefaultEv = comdat any

$_ZN6google8protobuf8internal14WireFormatLite15WriteTagToArrayEiNS2_8WireTypeEPh = comdat any

$_ZN6google8protobuf2io17CodedOutputStream20WriteVarint32ToArrayEjPh = comdat any

$_ZN6google8protobuf8internal14WireFormatLite7MakeTagEiNS2_8WireTypeE = comdat any

$_ZNK6google8protobuf16RepeatedPtrFieldIN6sample5PointEE3GetEi = comdat any

$_ZNK6google8protobuf8internal20RepeatedPtrFieldBase3GetINS0_16RepeatedPtrFieldIN6sample5PointEE11TypeHandlerEEERKNT_4TypeEi = comdat any

$_ZNK6google8protobuf16RepeatedPtrFieldIN6sample5PointEE4sizeEv = comdat any

$_ZNK6google8protobuf8internal20RepeatedPtrFieldBase4sizeEv = comdat any

$_ZN6google8protobuf8internal14WireFormatLite11MessageSizeERKNS0_11MessageLiteE = comdat any

$_ZN6google8protobuf8internal12ToCachedSizeEm = comdat any

$_ZN6google8protobuf8internal14WireFormatLite19LengthDelimitedSizeEm = comdat any

$_ZN6google8protobuf2io17CodedOutputStream12VarintSize32Ej = comdat any

$_ZN6google8protobuf4Bits16Log2FloorNonZeroEj = comdat any

$_ZN6google8protobuf2io16CodedInputStream7AdvanceEi = comdat any

$_ZSt9make_pairIRjbESt4pairINSt17__decay_and_stripIT_E6__typeENS2_IT0_E6__typeEEOS3_OS6_ = comdat any

$_ZSt9make_pairIRjRbESt4pairINSt17__decay_and_stripIT_E6__typeENS3_IT0_E6__typeEEOS4_OS7_ = comdat any

$_ZSt9make_pairIRKjbESt4pairINSt17__decay_and_stripIT_E6__typeENS3_IT0_E6__typeEEOS4_OS7_ = comdat any

$_ZN6google8protobuf8internal14WireFormatLite17GetTagFieldNumberEj = comdat any

$_ZN6google8protobuf8internal14WireFormatLite11ReadMessageEPNS0_2io16CodedInputStreamEPNS0_11MessageLiteE = comdat any

$_ZN6google8protobuf2io16CodedInputStream19ReadVarintSizeAsIntEPi = comdat any

$_ZSt7forwardIRKjEOT_RNSt16remove_referenceIS2_E4typeE = comdat any

$_ZSt7forwardIbEOT_RNSt16remove_referenceIS0_E4typeE = comdat any

$_ZNSt4pairIjbEC2IbvEERKjOT_ = comdat any

$_ZSt7forwardIRjEOT_RNSt16remove_referenceIS1_E4typeE = comdat any

$_ZSt7forwardIRbEOT_RNSt16remove_referenceIS1_E4typeE = comdat any

$_ZNSt4pairIjbEC2IRjRbvEEOT_OT0_ = comdat any

$_ZNSt4pairIjbEC2IRjbvEEOT_OT0_ = comdat any

$_ZN6google8protobuf16RepeatedPtrFieldIN6sample5PointEE5ClearEv = comdat any

$_ZN6google8protobuf8internal25InternalMetadataWithArena7DoClearEv = comdat any

$_ZN6google8protobuf8internal20RepeatedPtrFieldBase5ClearINS0_16RepeatedPtrFieldIN6sample5PointEE11TypeHandlerEEEvv = comdat any

$_ZN6google8protobuf8internal18GenericTypeHandlerIN6sample5PointEE5ClearEPS4_ = comdat any

$_ZN6google8protobuf5Arena3OwnIN6sample6PointsEEEvPT_ = comdat any

$_ZN6google8protobuf8internal19arena_delete_objectINS0_7MessageEEEvPv = comdat any

$_ZN6google8protobuf11MessageLiteC2Ev = comdat any

$_ZN6sample5Point25internal_default_instanceEv = comdat any

$_ZNK6sample5Point3NewEv = comdat any

$_ZNK6sample5Point13GetCachedSizeEv = comdat any

$_ZN6google8protobuf8internal22DynamicCastToGeneratedIKN6sample5PointEEEPT_PKNS0_7MessageE = comdat any

$_ZN6google8protobuf8internal14WireFormatLite17WriteInt32ToArrayEiiPh = comdat any

$_ZN6google8protobuf8internal14WireFormatLite22WriteInt32NoTagToArrayEiPh = comdat any

$_ZN6google8protobuf2io17CodedOutputStream32WriteVarint32SignExtendedToArrayEiPh = comdat any

$_ZN6google8protobuf2io17CodedOutputStream20WriteVarint64ToArrayEmPh = comdat any

$_ZN6google8protobuf8internal14WireFormatLite9Int32SizeEi = comdat any

$_ZN6google8protobuf2io17CodedOutputStream24VarintSize32SignExtendedEi = comdat any

$_ZN6google8protobuf8internal14WireFormatLite13ReadPrimitiveIiLNS2_9FieldTypeE5EEEbPNS0_2io16CodedInputStreamEPT_ = comdat any

$_ZN6google8protobuf2io16CodedInputStream12ReadVarint32EPj = comdat any

$_ZN6google8protobuf5Arena3OwnIN6sample5PointEEEvPT_ = comdat any

$_ZN6sample3Foo25internal_default_instanceEv = comdat any

$_ZN6google8protobuf8internal21ExplicitlyConstructedIN6sample3BarEE11get_mutableEv = comdat any

$_ZN6sample3Bar25internal_default_instanceEv = comdat any

$_ZNK6sample3Bar3NewEv = comdat any

$_ZNK6sample3Bar13GetCachedSizeEv = comdat any

$_ZN6google8protobuf8internal22DynamicCastToGeneratedIKN6sample3BarEEEPT_PKNS0_7MessageE = comdat any

$_ZNK6sample3Bar7has_fooEv = comdat any

$_ZN6sample3Bar11mutable_fooEv = comdat any

$_ZNK6sample3Bar1fEv = comdat any

$_ZN6sample3Bar5set_fEf = comdat any

$_ZNK6sample3Foo1sEv = comdat any

$_ZN6google8protobuf8internal14ArenaStringPtr17AssignWithDefaultEPKSsS2_ = comdat any

$_ZNK6sample3Foo1fEv = comdat any

$_ZN6google8protobuf8internal14ArenaStringPtr22UnsafeRawStringPointerEv = comdat any

$_ZNK6google8protobuf8internal14ArenaStringPtr10GetNoArenaEv = comdat any

$_ZN6google8protobuf8internal14ArenaStringPtr10SetNoArenaEPKSsRS3_ = comdat any

$_ZN6google8protobuf8internal14ArenaStringPtr21CreateInstanceNoArenaEPKSs = comdat any

$_ZN6google8protobuf8internal14ArenaStringPtr16UnsafeSetDefaultEPKSs = comdat any

$_ZN6google8protobuf8internal14WireFormatLite17WriteFloatToArrayEifPh = comdat any

$_ZN6google8protobuf8internal14WireFormatLite22WriteFloatNoTagToArrayEfPh = comdat any

$_ZN6google8protobuf8internal14WireFormatLite11EncodeFloatEf = comdat any

$_ZN6google8protobuf2io17CodedOutputStream26WriteLittleEndian32ToArrayEjPh = comdat any

$_ZN6google8protobuf8internal14WireFormatLite13ReadPrimitiveIfLNS2_9FieldTypeE2EEEbPNS0_2io16CodedInputStreamEPT_ = comdat any

$_ZN6google8protobuf2io16CodedInputStream18ReadLittleEndian32EPj = comdat any

$_ZN6google8protobuf8internal14WireFormatLite11DecodeFloatEj = comdat any

$_ZNK6google8protobuf2io16CodedInputStream10BufferSizeEv = comdat any

$_ZN6google8protobuf2io16CodedInputStream27ReadLittleEndian32FromArrayEPKhPj = comdat any

$_ZN6google8protobuf5Arena3OwnIN6sample3BarEEEvPT_ = comdat any

$_ZN6google8protobuf8internal22DynamicCastToGeneratedIKN6sample3FooEEEPT_PKNS0_7MessageE = comdat any

$_ZN6google8protobuf8internal14WireFormatLite18WriteStringToArrayEiRKSsPh = comdat any

$_ZN6google8protobuf8internal14WireFormatLite10StringSizeERKSs = comdat any

$_ZN6sample3Foo9mutable_sEv = comdat any

$_ZN6google8protobuf8internal14WireFormatLite10ReadStringEPNS0_2io16CodedInputStreamEPSs = comdat any

$_ZN6google8protobuf8internal14ArenaStringPtr14MutableNoArenaEPKSs = comdat any

$_ZN6google8protobuf8internal14ArenaStringPtr19ClearToEmptyNoArenaEPKSs = comdat any

$_ZN6google8protobuf5Arena3OwnIN6sample3FooEEEvPT_ = comdat any

$_ZN6google8protobuf8internal14ArenaStringPtr14DestroyNoArenaEPKSs = comdat any

$_ZN24protobuf_Samples_2eproto27StaticDescriptorInitializerC2Ev = comdat any

$_ZSt4swapIPSsEvRT_S2_ = comdat any

$_ZSt4swapIiEvRT_S1_ = comdat any

$_ZSt4swapIfEvRT_S1_ = comdat any

$_ZN6google8protobuf8internal25InternalMetadataWithArena6DoSwapEPNS0_15UnknownFieldSetE = comdat any

$_ZN6google8protobuf15UnknownFieldSet4SwapEPS1_ = comdat any

$_ZSt4swapIPSt6vectorIN6google8protobuf12UnknownFieldESaIS3_EEEvRT_S8_ = comdat any

$_ZSt4moveIRPSt6vectorIN6google8protobuf12UnknownFieldESaIS3_EEEONSt16remove_referenceIT_E4typeEOS9_ = comdat any

$_ZSt4moveIRfEONSt16remove_referenceIT_E4typeEOS2_ = comdat any

$_ZSt4moveIRiEONSt16remove_referenceIT_E4typeEOS2_ = comdat any

$_ZSt4moveIRPSsEONSt16remove_referenceIT_E4typeEOS3_ = comdat any

$_ZSt4swapIPN6sample3FooEEvRT_S4_ = comdat any

$_ZSt4moveIRPN6sample3FooEEONSt16remove_referenceIT_E4typeEOS5_ = comdat any

$_ZN6google8protobuf16RepeatedPtrFieldIN6sample5PointEEC2ERKS4_ = comdat any

$_ZN6google8protobuf8internal20RepeatedPtrFieldBase12InternalSwapEPS2_ = comdat any

$_ZSt4swapIPN6google8protobuf8internal20RepeatedPtrFieldBase3RepEEvRT_S7_ = comdat any

$_ZSt4moveIRPN6google8protobuf8internal20RepeatedPtrFieldBase3RepEEONSt16remove_referenceIT_E4typeEOS8_ = comdat any

$_ZTIN6google8protobuf8internal29InternalMetadataWithArenaBaseINS0_15UnknownFieldSetENS1_25InternalMetadataWithArenaEE9ContainerE = comdat any

$_ZTSN6google8protobuf8internal29InternalMetadataWithArenaBaseINS0_15UnknownFieldSetENS1_25InternalMetadataWithArenaEE9ContainerE = comdat any

@llvm.global_ctors = appending global [2 x { i32, void ()*, i8* }] [{ i32, void ()*, i8* } { i32 65535, void ()* @_GLOBAL__sub_I_module0, i8* null }, { i32, void ()*, i8* } { i32 65535, void ()* @_GLOBAL__sub_I_module0.53, i8* null }]
@_ZStL8__ioinit = internal global %"class.std::ios_base::Init" zeroinitializer, align 1
@__dso_handle = external hidden global i8
@.str = private unnamed_addr constant [22 x i8] c"%s Alice: %d Bob: %d\0A\00", align 1
@__FUNCTION__._Z10CompareAgeii = private unnamed_addr constant [11 x i8] c"CompareAge\00", align 1
@.str.1 = private unnamed_addr constant [27 x i8] c"%s result(=Alice-Bob): %d\0A\00", align 1
@__FUNCTION__._Z22YaoMillionairesProblemii = private unnamed_addr constant [23 x i8] c"YaoMillionairesProblem\00", align 1
@.str.2 = private unnamed_addr constant [21 x i8] c"%s Point1: (%d, %d)\0A\00", align 1
@__FUNCTION__._Z17EuclideanDistanceRKN6sample5PointES2_ = private unnamed_addr constant [18 x i8] c"EuclideanDistance\00", align 1
@.str.3 = private unnamed_addr constant [21 x i8] c"%s Point2: (%d, %d)\0A\00", align 1
@.str.4 = private unnamed_addr constant [17 x i8] c"%s distance: %d\0A\00", align 1
@__FUNCTION__._Z7TestAddii = private unnamed_addr constant [8 x i8] c"TestAdd\00", align 1
@.str.5 = private unnamed_addr constant [27 x i8] c"%s result(=Alice+Bob): %d\0A\00", align 1
@__FUNCTION__._Z7TestSubii = private unnamed_addr constant [8 x i8] c"TestSub\00", align 1
@__FUNCTION__._Z7TestMulii = private unnamed_addr constant [8 x i8] c"TestMul\00", align 1
@.str.6 = private unnamed_addr constant [27 x i8] c"%s result(=Alice*Bob): %d\0A\00", align 1
@__FUNCTION__._Z7TestDivii = private unnamed_addr constant [8 x i8] c"TestDiv\00", align 1
@.str.7 = private unnamed_addr constant [27 x i8] c"%s result(=Alice/Bob): %d\0A\00", align 1
@__FUNCTION__._Z7TestModii = private unnamed_addr constant [8 x i8] c"TestMod\00", align 1
@.str.8 = private unnamed_addr constant [28 x i8] c"%s result(=Alice%%Bob): %d\0A\00", align 1
@__FUNCTION__._Z7TestAndii = private unnamed_addr constant [8 x i8] c"TestAnd\00", align 1
@.str.9 = private unnamed_addr constant [27 x i8] c"%s result(=Alice&Bob): %d\0A\00", align 1
@__FUNCTION__._Z6TestOrii = private unnamed_addr constant [7 x i8] c"TestOr\00", align 1
@.str.10 = private unnamed_addr constant [27 x i8] c"%s result(=Alice|Bob): %d\0A\00", align 1
@__FUNCTION__._Z7TestXorii = private unnamed_addr constant [8 x i8] c"TestXor\00", align 1
@.str.18 = private unnamed_addr constant [3 x i8] c"%d\00", align 1
@.str.19 = private unnamed_addr constant [42 x i8] c"basic_string::_S_construct null not valid\00", align 1
@__FUNCTION__._Z12TestFooAdd01RKN6sample3FooES2_ = private unnamed_addr constant [13 x i8] c"TestFooAdd01\00", align 1
@.str.11 = private unnamed_addr constant [21 x i8] c"this is foo result: \00", align 1
@.str.12 = private unnamed_addr constant [2 x i8] c"+\00", align 1
@.str.13 = private unnamed_addr constant [2 x i8] c"=\00", align 1
@_ZN6google8protobuf8internal26fixed_address_empty_stringE = external global %"class.google::protobuf::internal::ExplicitlyConstructed", align 8
@__FUNCTION__._Z12TestFooAdd02RKN6sample3FooEi = private unnamed_addr constant [13 x i8] c"TestFooAdd02\00", align 1
@__FUNCTION__._Z12TestFooAdd03ii = private unnamed_addr constant [13 x i8] c"TestFooAdd03\00", align 1
@.str.14 = private unnamed_addr constant [26 x i8] c"%s Bar Alice: %d Bob: %d\0A\00", align 1
@__FUNCTION__._Z12TestBarAdd01RKN6sample3BarES2_ = private unnamed_addr constant [13 x i8] c"TestBarAdd01\00", align 1
@.str.15 = private unnamed_addr constant [30 x i8] c"%s Bar.Foo Alice: %d Bob: %d\0A\00", align 1
@.str.16 = private unnamed_addr constant [35 x i8] c"%s Bar.Foo result(=Alice+Bob): %d\0A\00", align 1
@__FUNCTION__._Z12TestBarAdd02RKN6sample3FooES2_ = private unnamed_addr constant [13 x i8] c"TestBarAdd02\00", align 1
@.str.17 = private unnamed_addr constant [20 x i8] c"%s Point: (%d, %d)\0A\00", align 1
@__FUNCTION__._Z12ReturnPointsii = private unnamed_addr constant [13 x i8] c"ReturnPoints\00", align 1
@__FUNCTION__._Z10PerfTest01ii = private unnamed_addr constant [11 x i8] c"PerfTest01\00", align 1
@_ZN6sample22_Foo_default_instance_E = global %"class.sample::FooDefaultTypeInternal" zeroinitializer, align 8
@_ZN6sample22_Bar_default_instance_E = global %"class.sample::FooDefaultTypeInternal" zeroinitializer, align 8
@_ZN6sample24_Point_default_instance_E = global %"class.sample::PointDefaultTypeInternal" zeroinitializer, align 8
@_ZN6sample25_Points_default_instance_E = global %"class.sample::PointsDefaultTypeInternal" zeroinitializer, align 8
@_ZN24protobuf_Samples_2eproto19file_level_metadataE = global [4 x %"struct.google::protobuf::Metadata"] zeroinitializer, align 16
@_ZN24protobuf_Samples_2eproto11TableStruct7offsetsE = constant [29 x i32] [i32 -1, i32 8, i32 -1, i32 -1, i32 -1, i32 24, i32 28, i32 16, i32 -1, i32 8, i32 -1, i32 -1, i32 -1, i32 16, i32 24, i32 28, i32 -1, i32 8, i32 -1, i32 -1, i32 -1, i32 16, i32 20, i32 -1, i32 8, i32 -1, i32 -1, i32 -1, i32 16], align 16
@_ZN24protobuf_Samples_2eproto29static_descriptor_initializerE = global %"class.std::ios_base::Init" zeroinitializer, align 1
@_ZN6sample3Foo15kI32FieldNumberE = constant i32 1, align 4
@_ZN6sample3Foo13kFFieldNumberE = constant i32 2, align 4
@_ZN6sample3Foo13kSFieldNumberE = constant i32 3, align 4
@_ZTVN6sample3FooE = unnamed_addr constant { [27 x i8*] } { [27 x i8*] [i8* null, i8* bitcast ({ i8*, i8*, i8* }* @_ZTIN6sample3FooE to i8*), i8* bitcast (void (%"class.sample::Foo"*)* @_ZN6sample3FooD1Ev to i8*), i8* bitcast (void (%"class.sample::Foo"*)* @_ZN6sample3FooD0Ev to i8*), i8* bitcast (void (%"class.google::protobuf::internal::InternalMetadataWithArena"*, %"class.google::protobuf::Message"*)* @_ZNK6google8protobuf7Message11GetTypeNameEv to i8*), i8* bitcast (%"class.sample::Foo"* (%"class.sample::Foo"*)* @_ZNK6sample3Foo3NewEv to i8*), i8* bitcast (%"class.sample::Foo"* (%"class.sample::Foo"*, %"class.google::protobuf::Arena"*)* @_ZNK6sample3Foo3NewEPN6google8protobuf5ArenaE to i8*), i8* bitcast (%"class.google::protobuf::Arena"* (%"class.google::protobuf::MessageLite"*)* @_ZNK6google8protobuf11MessageLite8GetArenaEv to i8*), i8* bitcast (i8* (%"class.google::protobuf::MessageLite"*)* @_ZNK6google8protobuf11MessageLite20GetMaybeArenaPointerEv to i8*), i8* bitcast (void (%"class.sample::Foo"*)* @_ZN6sample3Foo5ClearEv to i8*), i8* bitcast (i1 (%"class.sample::Foo"*)* @_ZNK6sample3Foo13IsInitializedEv to i8*), i8* bitcast (void (%"class.google::protobuf::internal::InternalMetadataWithArena"*, %"class.google::protobuf::Message"*)* @_ZNK6google8protobuf7Message25InitializationErrorStringEv to i8*), i8* bitcast (void (%"class.google::protobuf::Message"*, %"class.google::protobuf::MessageLite"*)* @_ZN6google8protobuf7Message21CheckTypeAndMergeFromERKNS0_11MessageLiteE to i8*), i8* bitcast (i1 (%"class.sample::Foo"*, %"class.google::protobuf::io::CodedInputStream"*)* @_ZN6sample3Foo27MergePartialFromCodedStreamEPN6google8protobuf2io16CodedInputStreamE to i8*), i8* bitcast (i64 (%"class.sample::Foo"*)* @_ZNK6sample3Foo12ByteSizeLongEv to i8*), i8* bitcast (void (%"class.sample::Foo"*, %"class.google::protobuf::io::CodedOutputStream"*)* @_ZNK6sample3Foo24SerializeWithCachedSizesEPN6google8protobuf2io17CodedOutputStreamE to i8*), i8* bitcast (i8* (%"class.google::protobuf::MessageLite"*, i8*)* @_ZNK6google8protobuf11MessageLite31SerializeWithCachedSizesToArrayEPh to i8*), i8* bitcast (i32 (%"class.sample::Foo"*)* @_ZNK6sample3Foo13GetCachedSizeEv to i8*), i8* bitcast (i8* (%"class.sample::Foo"*, i1, i8*)* @_ZNK6sample3Foo39InternalSerializeWithCachedSizesToArrayEbPh to i8*), i8* bitcast (i8* (%"class.google::protobuf::MessageLite"*)* @_ZNK6google8protobuf11MessageLite16InternalGetTableEv to i8*), i8* bitcast (void (%"class.sample::Foo"*, %"class.google::protobuf::Message"*)* @_ZN6sample3Foo8CopyFromERKN6google8protobuf7MessageE to i8*), i8* bitcast (void (%"class.sample::Foo"*, %"class.google::protobuf::Message"*)* @_ZN6sample3Foo9MergeFromERKN6google8protobuf7MessageE to i8*), i8* bitcast (void (%"class.google::protobuf::Message"*)* @_ZN6google8protobuf7Message20DiscardUnknownFieldsEv to i8*), i8* bitcast (i64 (%"class.google::protobuf::Message"*)* @_ZNK6google8protobuf7Message13SpaceUsedLongEv to i8*), i8* bitcast (void (%"class.sample::Foo"*, i32)* @_ZNK6sample3Foo13SetCachedSizeEi to i8*), i8* bitcast (%"class.google::protobuf::MessageLite"* (%"class.google::protobuf::Message"*)* @_ZNK6google8protobuf7Message13GetReflectionEv to i8*), i8* bitcast ({ %"class.google::protobuf::Descriptor"*, %"class.google::protobuf::MessageLite"* } (%"class.sample::Foo"*)* @_ZNK6sample3Foo11GetMetadataEv to i8*)] }, align 8
@_ZTIN6sample3FooE = constant { i8*, i8*, i8* } { i8* bitcast (i8** getelementptr inbounds (i8*, i8** @_ZTVN10__cxxabiv120__si_class_type_infoE, i64 2) to i8*), i8* getelementptr inbounds ([14 x i8], [14 x i8]* @_ZTSN6sample3FooE, i32 0, i32 0), i8* bitcast (i8** @_ZTIN6google8protobuf7MessageE to i8*) }
@_ZZN24protobuf_Samples_2eproto30protobuf_AssignDescriptorsOnceEvE4once = internal global i64 0, align 8
@_ZTVN6google8protobuf8internal16FunctionClosure0E = external unnamed_addr constant { [5 x i8*] }
@_ZTVN6google8protobuf7ClosureE = external unnamed_addr constant { [5 x i8*] }
@.str.1.7 = private unnamed_addr constant [14 x i8] c"Samples.proto\00", align 1
@_ZN24protobuf_Samples_2eprotoL7schemasE = internal constant [4 x %"struct.google::protobuf::internal::MigrationSchema"] [%"struct.google::protobuf::internal::MigrationSchema" { i32 0, i32 -1, i32 40 }, %"struct.google::protobuf::internal::MigrationSchema" { i32 8, i32 -1, i32 40 }, %"struct.google::protobuf::internal::MigrationSchema" { i32 16, i32 -1, i32 32 }, %"struct.google::protobuf::internal::MigrationSchema" { i32 23, i32 -1, i32 48 }], align 16
@_ZN24protobuf_Samples_2eprotoL22file_default_instancesE = internal constant [4 x %"class.google::protobuf::Message"*] [%"class.google::protobuf::Message"* bitcast (%"class.sample::FooDefaultTypeInternal"* @_ZN6sample22_Foo_default_instance_E to %"class.google::protobuf::Message"*), %"class.google::protobuf::Message"* bitcast (%"class.sample::FooDefaultTypeInternal"* @_ZN6sample22_Bar_default_instance_E to %"class.google::protobuf::Message"*), %"class.google::protobuf::Message"* bitcast (%"class.sample::PointDefaultTypeInternal"* @_ZN6sample24_Point_default_instance_E to %"class.google::protobuf::Message"*), %"class.google::protobuf::Message"* bitcast (%"class.sample::PointsDefaultTypeInternal"* @_ZN6sample25_Points_default_instance_E to %"class.google::protobuf::Message"*)], align 16
@_ZZN24protobuf_Samples_2eproto14AddDescriptorsEvE4once = internal global i64 0, align 8
@_ZZN24protobuf_Samples_2eproto18AddDescriptorsImplEvE10descriptor = internal constant [221 x i8] c"\0A\0DSamples.proto\12\06sample\22(\0A\03Foo\12\0B\0A\03i32\18\01 \01(\05\12\09\0A\01f\18\02 \01(\02\12\09\0A\01s\18\03 \01(\09\227\0A\03Bar\12\18\0A\03foo\18\01 \01(\0B2\0B.sample.Foo\12\0B\0A\03i32\18\02 \01(\05\12\09\0A\01f\18\03 \01(\02\22\1D\0A\05Point\12\09\0A\01x\18\01 \01(\05\12\09\0A\01y\18\02 \01(\05\22'\0A\06Points\12\1D\0A\06points\18\01 \03(\0B2\0D.sample.PointB\10\0A\0Ecom.abc.sampleb\06proto3\00", align 16
@_ZZN24protobuf_Samples_2eproto18InitDefaultsPointsEvE4once = internal global i64 0, align 8
@.str.20 = private unnamed_addr constant [39 x i8] c"/root/work/z/sample/code/Samples.pb.cc\00", align 1
@_ZTVN6sample6PointsE = unnamed_addr constant { [27 x i8*] } { [27 x i8*] [i8* null, i8* bitcast ({ i8*, i8*, i8* }* @_ZTIN6sample6PointsE to i8*), i8* bitcast (void (%"class.sample::Points"*)* @_ZN6sample6PointsD1Ev to i8*), i8* bitcast (void (%"class.sample::Points"*)* @_ZN6sample6PointsD0Ev to i8*), i8* bitcast (void (%"class.google::protobuf::internal::InternalMetadataWithArena"*, %"class.google::protobuf::Message"*)* @_ZNK6google8protobuf7Message11GetTypeNameEv to i8*), i8* bitcast (%"class.sample::Points"* (%"class.sample::Points"*)* @_ZNK6sample6Points3NewEv to i8*), i8* bitcast (%"class.sample::Points"* (%"class.sample::Points"*, %"class.google::protobuf::Arena"*)* @_ZNK6sample6Points3NewEPN6google8protobuf5ArenaE to i8*), i8* bitcast (%"class.google::protobuf::Arena"* (%"class.google::protobuf::MessageLite"*)* @_ZNK6google8protobuf11MessageLite8GetArenaEv to i8*), i8* bitcast (i8* (%"class.google::protobuf::MessageLite"*)* @_ZNK6google8protobuf11MessageLite20GetMaybeArenaPointerEv to i8*), i8* bitcast (void (%"class.sample::Points"*)* @_ZN6sample6Points5ClearEv to i8*), i8* bitcast (i1 (%"class.sample::Points"*)* @_ZNK6sample6Points13IsInitializedEv to i8*), i8* bitcast (void (%"class.google::protobuf::internal::InternalMetadataWithArena"*, %"class.google::protobuf::Message"*)* @_ZNK6google8protobuf7Message25InitializationErrorStringEv to i8*), i8* bitcast (void (%"class.google::protobuf::Message"*, %"class.google::protobuf::MessageLite"*)* @_ZN6google8protobuf7Message21CheckTypeAndMergeFromERKNS0_11MessageLiteE to i8*), i8* bitcast (i1 (%"class.sample::Points"*, %"class.google::protobuf::io::CodedInputStream"*)* @_ZN6sample6Points27MergePartialFromCodedStreamEPN6google8protobuf2io16CodedInputStreamE to i8*), i8* bitcast (i64 (%"class.sample::Points"*)* @_ZNK6sample6Points12ByteSizeLongEv to i8*), i8* bitcast (void (%"class.sample::Points"*, %"class.google::protobuf::io::CodedOutputStream"*)* @_ZNK6sample6Points24SerializeWithCachedSizesEPN6google8protobuf2io17CodedOutputStreamE to i8*), i8* bitcast (i8* (%"class.google::protobuf::MessageLite"*, i8*)* @_ZNK6google8protobuf11MessageLite31SerializeWithCachedSizesToArrayEPh to i8*), i8* bitcast (i32 (%"class.sample::Points"*)* @_ZNK6sample6Points13GetCachedSizeEv to i8*), i8* bitcast (i8* (%"class.sample::Points"*, i1, i8*)* @_ZNK6sample6Points39InternalSerializeWithCachedSizesToArrayEbPh to i8*), i8* bitcast (i8* (%"class.google::protobuf::MessageLite"*)* @_ZNK6google8protobuf11MessageLite16InternalGetTableEv to i8*), i8* bitcast (void (%"class.sample::Points"*, %"class.google::protobuf::Message"*)* @_ZN6sample6Points8CopyFromERKN6google8protobuf7MessageE to i8*), i8* bitcast (void (%"class.sample::Points"*, %"class.google::protobuf::Message"*)* @_ZN6sample6Points9MergeFromERKN6google8protobuf7MessageE to i8*), i8* bitcast (void (%"class.google::protobuf::Message"*)* @_ZN6google8protobuf7Message20DiscardUnknownFieldsEv to i8*), i8* bitcast (i64 (%"class.google::protobuf::Message"*)* @_ZNK6google8protobuf7Message13SpaceUsedLongEv to i8*), i8* bitcast (void (%"class.sample::Points"*, i32)* @_ZNK6sample6Points13SetCachedSizeEi to i8*), i8* bitcast (%"class.google::protobuf::MessageLite"* (%"class.google::protobuf::Message"*)* @_ZNK6google8protobuf7Message13GetReflectionEv to i8*), i8* bitcast ({ %"class.google::protobuf::Descriptor"*, %"class.google::protobuf::MessageLite"* } (%"class.sample::Points"*)* @_ZNK6sample6Points11GetMetadataEv to i8*)] }, align 8
@_ZTIN6sample6PointsE = constant { i8*, i8*, i8* } { i8* bitcast (i8** getelementptr inbounds (i8*, i8** @_ZTVN10__cxxabiv120__si_class_type_infoE, i64 2) to i8*), i8* getelementptr inbounds ([17 x i8], [17 x i8]* @_ZTSN6sample6PointsE, i32 0, i32 0), i8* bitcast (i8** @_ZTIN6google8protobuf7MessageE to i8*) }
@.str.4.27 = private unnamed_addr constant [34 x i8] c"CHECK failed: (&from) != (this): \00", align 1
@.str.7.28 = private unnamed_addr constant [35 x i8] c"./google/protobuf/repeated_field.h\00", align 1
@.str.11.29 = private unnamed_addr constant [35 x i8] c"CHECK failed: (&other) != (this): \00", align 1
@_ZTIN6google8protobuf8internal29InternalMetadataWithArenaBaseINS0_15UnknownFieldSetENS1_25InternalMetadataWithArenaEE9ContainerE = linkonce_odr constant { i8*, i8* } { i8* bitcast (i8** getelementptr inbounds (i8*, i8** @_ZTVN10__cxxabiv117__class_type_infoE, i64 2) to i8*), i8* getelementptr inbounds ([125 x i8], [125 x i8]* @_ZTSN6google8protobuf8internal29InternalMetadataWithArenaBaseINS0_15UnknownFieldSetENS1_25InternalMetadataWithArenaEE9ContainerE, i32 0, i32 0) }, comdat
@_ZTVN10__cxxabiv117__class_type_infoE = external global i8*
@_ZTSN6google8protobuf8internal29InternalMetadataWithArenaBaseINS0_15UnknownFieldSetENS1_25InternalMetadataWithArenaEE9ContainerE = linkonce_odr constant [125 x i8] c"N6google8protobuf8internal29InternalMetadataWithArenaBaseINS0_15UnknownFieldSetENS1_25InternalMetadataWithArenaEE9ContainerE\00", comdat
@_ZTIN6google8protobuf7MessageE = external constant i8*
@_ZN6google8protobuf8internal24proto3_preserve_unknown_E = external global i8, align 1
@.str.9.30 = private unnamed_addr constant [31 x i8] c"CHECK failed: (index) >= (0): \00", align 1
@.str.10.31 = private unnamed_addr constant [42 x i8] c"CHECK failed: (index) < (current_size_): \00", align 1
@.str.8.32 = private unnamed_addr constant [27 x i8] c"CHECK failed: (n) >= (0): \00", align 1
@_ZTVN10__cxxabiv120__si_class_type_infoE = external global i8*
@_ZTSN6sample6PointsE = constant [17 x i8] c"N6sample6PointsE\00"
@_ZTVN6google8protobuf7MessageE = external unnamed_addr constant { [27 x i8*] }
@_ZTVN6google8protobuf11MessageLiteE = external unnamed_addr constant { [20 x i8*] }
@_ZZN24protobuf_Samples_2eproto17InitDefaultsPointEvE4once = internal global i64 0, align 8
@_ZTVN6sample5PointE = unnamed_addr constant { [27 x i8*] } { [27 x i8*] [i8* null, i8* bitcast ({ i8*, i8*, i8* }* @_ZTIN6sample5PointE to i8*), i8* bitcast (void (%"class.sample::Point"*)* @_ZN6sample5PointD1Ev to i8*), i8* bitcast (void (%"class.sample::Point"*)* @_ZN6sample5PointD0Ev to i8*), i8* bitcast (void (%"class.google::protobuf::internal::InternalMetadataWithArena"*, %"class.google::protobuf::Message"*)* @_ZNK6google8protobuf7Message11GetTypeNameEv to i8*), i8* bitcast (%"class.sample::Point"* (%"class.sample::Point"*)* @_ZNK6sample5Point3NewEv to i8*), i8* bitcast (%"class.sample::Point"* (%"class.sample::Point"*, %"class.google::protobuf::Arena"*)* @_ZNK6sample5Point3NewEPN6google8protobuf5ArenaE to i8*), i8* bitcast (%"class.google::protobuf::Arena"* (%"class.google::protobuf::MessageLite"*)* @_ZNK6google8protobuf11MessageLite8GetArenaEv to i8*), i8* bitcast (i8* (%"class.google::protobuf::MessageLite"*)* @_ZNK6google8protobuf11MessageLite20GetMaybeArenaPointerEv to i8*), i8* bitcast (void (%"class.sample::Point"*)* @_ZN6sample5Point5ClearEv to i8*), i8* bitcast (i1 (%"class.sample::Point"*)* @_ZNK6sample5Point13IsInitializedEv to i8*), i8* bitcast (void (%"class.google::protobuf::internal::InternalMetadataWithArena"*, %"class.google::protobuf::Message"*)* @_ZNK6google8protobuf7Message25InitializationErrorStringEv to i8*), i8* bitcast (void (%"class.google::protobuf::Message"*, %"class.google::protobuf::MessageLite"*)* @_ZN6google8protobuf7Message21CheckTypeAndMergeFromERKNS0_11MessageLiteE to i8*), i8* bitcast (i1 (%"class.sample::Point"*, %"class.google::protobuf::io::CodedInputStream"*)* @_ZN6sample5Point27MergePartialFromCodedStreamEPN6google8protobuf2io16CodedInputStreamE to i8*), i8* bitcast (i64 (%"class.sample::Point"*)* @_ZNK6sample5Point12ByteSizeLongEv to i8*), i8* bitcast (void (%"class.sample::Point"*, %"class.google::protobuf::io::CodedOutputStream"*)* @_ZNK6sample5Point24SerializeWithCachedSizesEPN6google8protobuf2io17CodedOutputStreamE to i8*), i8* bitcast (i8* (%"class.google::protobuf::MessageLite"*, i8*)* @_ZNK6google8protobuf11MessageLite31SerializeWithCachedSizesToArrayEPh to i8*), i8* bitcast (i32 (%"class.sample::Point"*)* @_ZNK6sample5Point13GetCachedSizeEv to i8*), i8* bitcast (i8* (%"class.sample::Point"*, i1, i8*)* @_ZNK6sample5Point39InternalSerializeWithCachedSizesToArrayEbPh to i8*), i8* bitcast (i8* (%"class.google::protobuf::MessageLite"*)* @_ZNK6google8protobuf11MessageLite16InternalGetTableEv to i8*), i8* bitcast (void (%"class.sample::Point"*, %"class.google::protobuf::Message"*)* @_ZN6sample5Point8CopyFromERKN6google8protobuf7MessageE to i8*), i8* bitcast (void (%"class.sample::Point"*, %"class.google::protobuf::Message"*)* @_ZN6sample5Point9MergeFromERKN6google8protobuf7MessageE to i8*), i8* bitcast (void (%"class.google::protobuf::Message"*)* @_ZN6google8protobuf7Message20DiscardUnknownFieldsEv to i8*), i8* bitcast (i64 (%"class.google::protobuf::Message"*)* @_ZNK6google8protobuf7Message13SpaceUsedLongEv to i8*), i8* bitcast (void (%"class.sample::Point"*, i32)* @_ZNK6sample5Point13SetCachedSizeEi to i8*), i8* bitcast (%"class.google::protobuf::MessageLite"* (%"class.google::protobuf::Message"*)* @_ZNK6google8protobuf7Message13GetReflectionEv to i8*), i8* bitcast ({ %"class.google::protobuf::Descriptor"*, %"class.google::protobuf::MessageLite"* } (%"class.sample::Point"*)* @_ZNK6sample5Point11GetMetadataEv to i8*)] }, align 8
@_ZTIN6sample5PointE = constant { i8*, i8*, i8* } { i8* bitcast (i8** getelementptr inbounds (i8*, i8** @_ZTVN10__cxxabiv120__si_class_type_infoE, i64 2) to i8*), i8* getelementptr inbounds ([16 x i8], [16 x i8]* @_ZTSN6sample5PointE, i32 0, i32 0), i8* bitcast (i8** @_ZTIN6google8protobuf7MessageE to i8*) }
@_ZTSN6sample5PointE = constant [16 x i8] c"N6sample5PointE\00"
@_ZZN24protobuf_Samples_2eproto15InitDefaultsBarEvE4once = internal global i64 0, align 8
@_ZTVN6sample3BarE = unnamed_addr constant { [27 x i8*] } { [27 x i8*] [i8* null, i8* bitcast ({ i8*, i8*, i8* }* @_ZTIN6sample3BarE to i8*), i8* bitcast (void (%"class.sample::Bar"*)* @_ZN6sample3BarD1Ev to i8*), i8* bitcast (void (%"class.sample::Bar"*)* @_ZN6sample3BarD0Ev to i8*), i8* bitcast (void (%"class.google::protobuf::internal::InternalMetadataWithArena"*, %"class.google::protobuf::Message"*)* @_ZNK6google8protobuf7Message11GetTypeNameEv to i8*), i8* bitcast (%"class.sample::Bar"* (%"class.sample::Bar"*)* @_ZNK6sample3Bar3NewEv to i8*), i8* bitcast (%"class.sample::Bar"* (%"class.sample::Bar"*, %"class.google::protobuf::Arena"*)* @_ZNK6sample3Bar3NewEPN6google8protobuf5ArenaE to i8*), i8* bitcast (%"class.google::protobuf::Arena"* (%"class.google::protobuf::MessageLite"*)* @_ZNK6google8protobuf11MessageLite8GetArenaEv to i8*), i8* bitcast (i8* (%"class.google::protobuf::MessageLite"*)* @_ZNK6google8protobuf11MessageLite20GetMaybeArenaPointerEv to i8*), i8* bitcast (void (%"class.sample::Bar"*)* @_ZN6sample3Bar5ClearEv to i8*), i8* bitcast (i1 (%"class.sample::Bar"*)* @_ZNK6sample3Bar13IsInitializedEv to i8*), i8* bitcast (void (%"class.google::protobuf::internal::InternalMetadataWithArena"*, %"class.google::protobuf::Message"*)* @_ZNK6google8protobuf7Message25InitializationErrorStringEv to i8*), i8* bitcast (void (%"class.google::protobuf::Message"*, %"class.google::protobuf::MessageLite"*)* @_ZN6google8protobuf7Message21CheckTypeAndMergeFromERKNS0_11MessageLiteE to i8*), i8* bitcast (i1 (%"class.sample::Bar"*, %"class.google::protobuf::io::CodedInputStream"*)* @_ZN6sample3Bar27MergePartialFromCodedStreamEPN6google8protobuf2io16CodedInputStreamE to i8*), i8* bitcast (i64 (%"class.sample::Bar"*)* @_ZNK6sample3Bar12ByteSizeLongEv to i8*), i8* bitcast (void (%"class.sample::Bar"*, %"class.google::protobuf::io::CodedOutputStream"*)* @_ZNK6sample3Bar24SerializeWithCachedSizesEPN6google8protobuf2io17CodedOutputStreamE to i8*), i8* bitcast (i8* (%"class.google::protobuf::MessageLite"*, i8*)* @_ZNK6google8protobuf11MessageLite31SerializeWithCachedSizesToArrayEPh to i8*), i8* bitcast (i32 (%"class.sample::Bar"*)* @_ZNK6sample3Bar13GetCachedSizeEv to i8*), i8* bitcast (i8* (%"class.sample::Bar"*, i1, i8*)* @_ZNK6sample3Bar39InternalSerializeWithCachedSizesToArrayEbPh to i8*), i8* bitcast (i8* (%"class.google::protobuf::MessageLite"*)* @_ZNK6google8protobuf11MessageLite16InternalGetTableEv to i8*), i8* bitcast (void (%"class.sample::Bar"*, %"class.google::protobuf::Message"*)* @_ZN6sample3Bar8CopyFromERKN6google8protobuf7MessageE to i8*), i8* bitcast (void (%"class.sample::Bar"*, %"class.google::protobuf::Message"*)* @_ZN6sample3Bar9MergeFromERKN6google8protobuf7MessageE to i8*), i8* bitcast (void (%"class.google::protobuf::Message"*)* @_ZN6google8protobuf7Message20DiscardUnknownFieldsEv to i8*), i8* bitcast (i64 (%"class.google::protobuf::Message"*)* @_ZNK6google8protobuf7Message13SpaceUsedLongEv to i8*), i8* bitcast (void (%"class.sample::Bar"*, i32)* @_ZNK6sample3Bar13SetCachedSizeEi to i8*), i8* bitcast (%"class.google::protobuf::MessageLite"* (%"class.google::protobuf::Message"*)* @_ZNK6google8protobuf7Message13GetReflectionEv to i8*), i8* bitcast ({ %"class.google::protobuf::Descriptor"*, %"class.google::protobuf::MessageLite"* } (%"class.sample::Bar"*)* @_ZNK6sample3Bar11GetMetadataEv to i8*)] }, align 8
@_ZTIN6sample3BarE = constant { i8*, i8*, i8* } { i8* bitcast (i8** getelementptr inbounds (i8*, i8** @_ZTVN10__cxxabiv120__si_class_type_infoE, i64 2) to i8*), i8* getelementptr inbounds ([14 x i8], [14 x i8]* @_ZTSN6sample3BarE, i32 0, i32 0), i8* bitcast (i8** @_ZTIN6google8protobuf7MessageE to i8*) }
@.str.5.47 = private unnamed_addr constant [32 x i8] c"./google/protobuf/arenastring.h\00", align 1
@.str.6.48 = private unnamed_addr constant [38 x i8] c"CHECK failed: initial_value != NULL: \00", align 1
@_ZTSN6sample3BarE = constant [14 x i8] c"N6sample3BarE\00"
@_ZZN24protobuf_Samples_2eproto15InitDefaultsFooEvE4once = internal global i64 0, align 8
@.str.3.51 = private unnamed_addr constant [13 x i8] c"sample.Foo.s\00", align 1
@_ZTSN6sample3FooE = constant [14 x i8] c"N6sample3FooE\00"
@_ZN6sample3Bar15kFooFieldNumberE = constant i32 1, align 4
@_ZN6sample3Bar15kI32FieldNumberE = constant i32 2, align 4
@_ZN6sample3Bar13kFFieldNumberE = constant i32 3, align 4
@_ZN6sample5Point13kXFieldNumberE = constant i32 1, align 4
@_ZN6sample5Point13kYFieldNumberE = constant i32 2, align 4
@_ZN6sample6Points18kPointsFieldNumberE = constant i32 1, align 4
@_ZStL8__ioinit.55 = internal global %"class.std::ios_base::Init" zeroinitializer, align 1
@.str.12.56 = private unnamed_addr constant [30 x i8] c"CHECK failed: this != other: \00", align 1
@.str.13.57 = private unnamed_addr constant [66 x i8] c"CHECK failed: GetArenaNoVirtual() == other->GetArenaNoVirtual(): \00", align 1

@_ZN6sample3FooD1Ev = alias void (%"class.sample::Foo"*), void (%"class.sample::Foo"*)* @_ZN6sample3FooD2Ev
@_ZN6sample6PointsC1Ev = alias void (%"class.sample::Points"*), void (%"class.sample::Points"*)* @_ZN6sample6PointsC2Ev
@_ZN6sample6PointsD1Ev = alias void (%"class.sample::Points"*), void (%"class.sample::Points"*)* @_ZN6sample6PointsD2Ev
@_ZN6sample5PointC1Ev = alias void (%"class.sample::Point"*), void (%"class.sample::Point"*)* @_ZN6sample5PointC2Ev
@_ZN6sample5PointD1Ev = alias void (%"class.sample::Point"*), void (%"class.sample::Point"*)* @_ZN6sample5PointD2Ev
@_ZN6sample3BarC1Ev = alias void (%"class.sample::Bar"*), void (%"class.sample::Bar"*)* @_ZN6sample3BarC2Ev
@_ZN6sample3BarD1Ev = alias void (%"class.sample::Bar"*), void (%"class.sample::Bar"*)* @_ZN6sample3BarD2Ev
@_ZN6sample3FooC1Ev = alias void (%"class.sample::Foo"*), void (%"class.sample::Foo"*)* @_ZN6sample3FooC2Ev
@_ZN6sample3FooC1ERKS0_ = alias void (%"class.sample::Foo"*, %"class.sample::Foo"*), void (%"class.sample::Foo"*, %"class.sample::Foo"*)* @_ZN6sample3FooC2ERKS0_
@_ZN6sample3BarC1ERKS0_ = alias void (%"class.sample::Bar"*, %"class.sample::Bar"*), void (%"class.sample::Bar"*, %"class.sample::Bar"*)* @_ZN6sample3BarC2ERKS0_
@_ZN6sample5PointC1ERKS0_ = alias void (%"class.sample::Point"*, %"class.sample::Point"*), void (%"class.sample::Point"*, %"class.sample::Point"*)* @_ZN6sample5PointC2ERKS0_
@_ZN6sample6PointsC1ERKS0_ = alias void (%"class.sample::Points"*, %"class.sample::Points"*), void (%"class.sample::Points"*, %"class.sample::Points"*)* @_ZN6sample6PointsC2ERKS0_

; Function Attrs: noinline uwtable
define internal void @_GLOBAL__sub_I_module0() #0 section ".text.startup" {
  call void @__cxx_global_var_init()
  ret void
}

; Function Attrs: noinline uwtable
define internal void @__cxx_global_var_init() #0 section ".text.startup" {
  call void @_ZNSt8ios_base4InitC1Ev(%"class.std::ios_base::Init"* @_ZStL8__ioinit)
  %1 = call i32 @__cxa_atexit(void (i8*)* bitcast (void (%"class.std::ios_base::Init"*)* @_ZNSt8ios_base4InitD1Ev to void (i8*)*), i8* getelementptr inbounds (%"class.std::ios_base::Init", %"class.std::ios_base::Init"* @_ZStL8__ioinit, i32 0, i32 0), i8* @__dso_handle) #3
  ret void
}

declare void @_ZNSt8ios_base4InitC1Ev(%"class.std::ios_base::Init"*) unnamed_addr #1

; Function Attrs: nounwind
declare void @_ZNSt8ios_base4InitD1Ev(%"class.std::ios_base::Init"*) unnamed_addr #2

; Function Attrs: nounwind
declare i32 @__cxa_atexit(void (i8*)*, i8*, i8*) #3

; Function Attrs: noinline optnone uwtable
define zeroext i1 @_Z10CompareAgeii(i32, i32) #4 personality i8* bitcast (i32 (...)* @__gxx_personality_v0 to i8*) {
  %3 = alloca i32, align 4
  %4 = alloca i32, align 4
  %5 = alloca %"class.emp::Integer", align 8
  %6 = alloca %"class.emp::Integer", align 8
  %7 = alloca i8*
  %8 = alloca i32
  %9 = alloca i32, align 4
  %10 = alloca %"class.emp::Integer", align 8
  store i32 %0, i32* %3, align 4
  store i32 %1, i32* %4, align 4
  %11 = load i32, i32* %3, align 4
  %12 = load i32, i32* %4, align 4
  %13 = call i32 (i8*, ...) @printf(i8* getelementptr inbounds ([22 x i8], [22 x i8]* @.str, i32 0, i32 0), i8* getelementptr inbounds ([11 x i8], [11 x i8]* @__FUNCTION__._Z10CompareAgeii, i32 0, i32 0), i32 %11, i32 %12)
  call void @_ZN3emp7IntegerC1ERKii(%"class.emp::Integer"* %5, i32* dereferenceable(4) %3, i32 1)
  invoke void @_ZN3emp7IntegerC1ERKii(%"class.emp::Integer"* %6, i32* dereferenceable(4) %4, i32 2)
          to label %14 unwind label %24

; <label>:14:                                     ; preds = %2
  invoke void @_ZNK3emp7IntegermiERKS0_(%"class.emp::Integer"* sret %10, %"class.emp::Integer"* %5, %"class.emp::Integer"* dereferenceable(16) %6)
          to label %15 unwind label %28

; <label>:15:                                     ; preds = %14
  %16 = invoke i64 @_ZNK3emp7Integer10reveal_intEi(%"class.emp::Integer"* %10, i32 0)
          to label %17 unwind label %32

; <label>:17:                                     ; preds = %15
  %18 = trunc i64 %16 to i32
  call void @_ZN3emp7IntegerD1Ev(%"class.emp::Integer"* %10) #3
  store i32 %18, i32* %9, align 4
  %19 = load i32, i32* %9, align 4
  %20 = invoke i32 (i8*, ...) @printf(i8* getelementptr inbounds ([27 x i8], [27 x i8]* @.str.1, i32 0, i32 0), i8* getelementptr inbounds ([11 x i8], [11 x i8]* @__FUNCTION__._Z10CompareAgeii, i32 0, i32 0), i32 %19)
          to label %21 unwind label %28

; <label>:21:                                     ; preds = %17
  %22 = load i32, i32* %9, align 4
  %23 = icmp sge i32 %22, 0
  call void @_ZN3emp7IntegerD1Ev(%"class.emp::Integer"* %6) #3
  call void @_ZN3emp7IntegerD1Ev(%"class.emp::Integer"* %5) #3
  ret i1 %23

; <label>:24:                                     ; preds = %2
  %25 = landingpad { i8*, i32 }
          cleanup
  %26 = extractvalue { i8*, i32 } %25, 0
  store i8* %26, i8** %7, align 8
  %27 = extractvalue { i8*, i32 } %25, 1
  store i32 %27, i32* %8, align 4
  br label %37

; <label>:28:                                     ; preds = %17, %14
  %29 = landingpad { i8*, i32 }
          cleanup
  %30 = extractvalue { i8*, i32 } %29, 0
  store i8* %30, i8** %7, align 8
  %31 = extractvalue { i8*, i32 } %29, 1
  store i32 %31, i32* %8, align 4
  br label %36

; <label>:32:                                     ; preds = %15
  %33 = landingpad { i8*, i32 }
          cleanup
  %34 = extractvalue { i8*, i32 } %33, 0
  store i8* %34, i8** %7, align 8
  %35 = extractvalue { i8*, i32 } %33, 1
  store i32 %35, i32* %8, align 4
  call void @_ZN3emp7IntegerD1Ev(%"class.emp::Integer"* %10) #3
  br label %36

; <label>:36:                                     ; preds = %32, %28
  call void @_ZN3emp7IntegerD1Ev(%"class.emp::Integer"* %6) #3
  br label %37

; <label>:37:                                     ; preds = %36, %24
  call void @_ZN3emp7IntegerD1Ev(%"class.emp::Integer"* %5) #3
  br label %38

; <label>:38:                                     ; preds = %37
  %39 = load i8*, i8** %7, align 8
  %40 = load i32, i32* %8, align 4
  %41 = insertvalue { i8*, i32 } undef, i8* %39, 0
  %42 = insertvalue { i8*, i32 } %41, i32 %40, 1
  resume { i8*, i32 } %42
}

declare i32 @__gxx_personality_v0(...)

declare i32 @printf(i8*, ...) #1

declare void @_ZN3emp7IntegerC1ERKii(%"class.emp::Integer"*, i32* dereferenceable(4), i32) unnamed_addr #1

declare void @_ZNK3emp7IntegermiERKS0_(%"class.emp::Integer"* sret, %"class.emp::Integer"*, %"class.emp::Integer"* dereferenceable(16)) #1

declare i64 @_ZNK3emp7Integer10reveal_intEi(%"class.emp::Integer"*, i32) #1

; Function Attrs: nounwind
declare void @_ZN3emp7IntegerD1Ev(%"class.emp::Integer"*) unnamed_addr #2

; Function Attrs: noinline optnone uwtable
define zeroext i1 @_Z22YaoMillionairesProblemii(i32, i32) #4 personality i8* bitcast (i32 (...)* @__gxx_personality_v0 to i8*) {
  %3 = alloca i32, align 4
  %4 = alloca i32, align 4
  %5 = alloca %"class.emp::Integer", align 8
  %6 = alloca %"class.emp::Integer", align 8
  %7 = alloca i8*
  %8 = alloca i32
  %9 = alloca i32, align 4
  %10 = alloca %"class.emp::Integer", align 8
  store i32 %0, i32* %3, align 4
  store i32 %1, i32* %4, align 4
  %11 = load i32, i32* %3, align 4
  %12 = load i32, i32* %4, align 4
  %13 = call i32 (i8*, ...) @printf(i8* getelementptr inbounds ([22 x i8], [22 x i8]* @.str, i32 0, i32 0), i8* getelementptr inbounds ([23 x i8], [23 x i8]* @__FUNCTION__._Z22YaoMillionairesProblemii, i32 0, i32 0), i32 %11, i32 %12)
  call void @_ZN3emp7IntegerC1ERKii(%"class.emp::Integer"* %5, i32* dereferenceable(4) %3, i32 1)
  invoke void @_ZN3emp7IntegerC1ERKii(%"class.emp::Integer"* %6, i32* dereferenceable(4) %4, i32 2)
          to label %14 unwind label %24

; <label>:14:                                     ; preds = %2
  invoke void @_ZNK3emp7IntegermiERKS0_(%"class.emp::Integer"* sret %10, %"class.emp::Integer"* %5, %"class.emp::Integer"* dereferenceable(16) %6)
          to label %15 unwind label %28

; <label>:15:                                     ; preds = %14
  %16 = invoke i64 @_ZNK3emp7Integer10reveal_intEi(%"class.emp::Integer"* %10, i32 0)
          to label %17 unwind label %32

; <label>:17:                                     ; preds = %15
  %18 = trunc i64 %16 to i32
  call void @_ZN3emp7IntegerD1Ev(%"class.emp::Integer"* %10) #3
  store i32 %18, i32* %9, align 4
  %19 = load i32, i32* %9, align 4
  %20 = invoke i32 (i8*, ...) @printf(i8* getelementptr inbounds ([27 x i8], [27 x i8]* @.str.1, i32 0, i32 0), i8* getelementptr inbounds ([23 x i8], [23 x i8]* @__FUNCTION__._Z22YaoMillionairesProblemii, i32 0, i32 0), i32 %19)
          to label %21 unwind label %28

; <label>:21:                                     ; preds = %17
  %22 = load i32, i32* %9, align 4
  %23 = icmp sge i32 %22, 0
  call void @_ZN3emp7IntegerD1Ev(%"class.emp::Integer"* %6) #3
  call void @_ZN3emp7IntegerD1Ev(%"class.emp::Integer"* %5) #3
  ret i1 %23

; <label>:24:                                     ; preds = %2
  %25 = landingpad { i8*, i32 }
          cleanup
  %26 = extractvalue { i8*, i32 } %25, 0
  store i8* %26, i8** %7, align 8
  %27 = extractvalue { i8*, i32 } %25, 1
  store i32 %27, i32* %8, align 4
  br label %37

; <label>:28:                                     ; preds = %17, %14
  %29 = landingpad { i8*, i32 }
          cleanup
  %30 = extractvalue { i8*, i32 } %29, 0
  store i8* %30, i8** %7, align 8
  %31 = extractvalue { i8*, i32 } %29, 1
  store i32 %31, i32* %8, align 4
  br label %36

; <label>:32:                                     ; preds = %15
  %33 = landingpad { i8*, i32 }
          cleanup
  %34 = extractvalue { i8*, i32 } %33, 0
  store i8* %34, i8** %7, align 8
  %35 = extractvalue { i8*, i32 } %33, 1
  store i32 %35, i32* %8, align 4
  call void @_ZN3emp7IntegerD1Ev(%"class.emp::Integer"* %10) #3
  br label %36

; <label>:36:                                     ; preds = %32, %28
  call void @_ZN3emp7IntegerD1Ev(%"class.emp::Integer"* %6) #3
  br label %37

; <label>:37:                                     ; preds = %36, %24
  call void @_ZN3emp7IntegerD1Ev(%"class.emp::Integer"* %5) #3
  br label %38

; <label>:38:                                     ; preds = %37
  %39 = load i8*, i8** %7, align 8
  %40 = load i32, i32* %8, align 4
  %41 = insertvalue { i8*, i32 } undef, i8* %39, 0
  %42 = insertvalue { i8*, i32 } %41, i32 %40, 1
  resume { i8*, i32 } %42
}

; Function Attrs: noinline optnone uwtable
define i32 @_Z17EuclideanDistanceRKN6sample5PointES2_(%"class.sample::Point"* dereferenceable(32), %"class.sample::Point"* dereferenceable(32)) #4 personality i8* bitcast (i32 (...)* @__gxx_personality_v0 to i8*) {
  %3 = alloca %"class.sample::Point"*, align 8
  %4 = alloca %"class.sample::Point"*, align 8
  %5 = alloca %"class.emp::Integer", align 8
  %6 = alloca i32, align 4
  %7 = alloca %"class.emp::Integer", align 8
  %8 = alloca i32, align 4
  %9 = alloca i8*
  %10 = alloca i32
  %11 = alloca %"class.emp::Integer", align 8
  %12 = alloca i32, align 4
  %13 = alloca %"class.emp::Integer", align 8
  %14 = alloca i32, align 4
  %15 = alloca %"class.emp::Integer", align 8
  %16 = alloca %"class.emp::Integer", align 8
  %17 = alloca %"class.emp::Integer", align 8
  %18 = alloca %"class.emp::Integer", align 8
  %19 = alloca %"class.emp::Integer", align 8
  %20 = alloca %"class.emp::Integer", align 8
  %21 = alloca %"class.emp::Integer", align 8
  %22 = alloca i32, align 4
  store %"class.sample::Point"* %0, %"class.sample::Point"** %3, align 8
  store %"class.sample::Point"* %1, %"class.sample::Point"** %4, align 8
  %23 = load %"class.sample::Point"*, %"class.sample::Point"** %3, align 8
  %24 = call i32 @_ZNK6sample5Point1xEv(%"class.sample::Point"* %23)
  %25 = load %"class.sample::Point"*, %"class.sample::Point"** %3, align 8
  %26 = call i32 @_ZNK6sample5Point1yEv(%"class.sample::Point"* %25)
  %27 = call i32 (i8*, ...) @printf(i8* getelementptr inbounds ([21 x i8], [21 x i8]* @.str.2, i32 0, i32 0), i8* getelementptr inbounds ([18 x i8], [18 x i8]* @__FUNCTION__._Z17EuclideanDistanceRKN6sample5PointES2_, i32 0, i32 0), i32 %24, i32 %26)
  %28 = load %"class.sample::Point"*, %"class.sample::Point"** %4, align 8
  %29 = call i32 @_ZNK6sample5Point1xEv(%"class.sample::Point"* %28)
  %30 = load %"class.sample::Point"*, %"class.sample::Point"** %4, align 8
  %31 = call i32 @_ZNK6sample5Point1yEv(%"class.sample::Point"* %30)
  %32 = call i32 (i8*, ...) @printf(i8* getelementptr inbounds ([21 x i8], [21 x i8]* @.str.3, i32 0, i32 0), i8* getelementptr inbounds ([18 x i8], [18 x i8]* @__FUNCTION__._Z17EuclideanDistanceRKN6sample5PointES2_, i32 0, i32 0), i32 %29, i32 %31)
  %33 = load %"class.sample::Point"*, %"class.sample::Point"** %3, align 8
  %34 = call i32 @_ZNK6sample5Point1xEv(%"class.sample::Point"* %33)
  store i32 %34, i32* %6, align 4
  call void @_ZN3emp7IntegerC1ERKii(%"class.emp::Integer"* %5, i32* dereferenceable(4) %6, i32 1)
  %35 = load %"class.sample::Point"*, %"class.sample::Point"** %3, align 8
  %36 = invoke i32 @_ZNK6sample5Point1yEv(%"class.sample::Point"* %35)
          to label %37 unwind label %63

; <label>:37:                                     ; preds = %2
  store i32 %36, i32* %8, align 4
  invoke void @_ZN3emp7IntegerC1ERKii(%"class.emp::Integer"* %7, i32* dereferenceable(4) %8, i32 1)
          to label %38 unwind label %63

; <label>:38:                                     ; preds = %37
  %39 = load %"class.sample::Point"*, %"class.sample::Point"** %4, align 8
  %40 = invoke i32 @_ZNK6sample5Point1xEv(%"class.sample::Point"* %39)
          to label %41 unwind label %67

; <label>:41:                                     ; preds = %38
  store i32 %40, i32* %12, align 4
  invoke void @_ZN3emp7IntegerC1ERKii(%"class.emp::Integer"* %11, i32* dereferenceable(4) %12, i32 2)
          to label %42 unwind label %67

; <label>:42:                                     ; preds = %41
  %43 = load %"class.sample::Point"*, %"class.sample::Point"** %4, align 8
  %44 = invoke i32 @_ZNK6sample5Point1yEv(%"class.sample::Point"* %43)
          to label %45 unwind label %71

; <label>:45:                                     ; preds = %42
  store i32 %44, i32* %14, align 4
  invoke void @_ZN3emp7IntegerC1ERKii(%"class.emp::Integer"* %13, i32* dereferenceable(4) %14, i32 2)
          to label %46 unwind label %71

; <label>:46:                                     ; preds = %45
  invoke void @_ZNK3emp7IntegermiERKS0_(%"class.emp::Integer"* sret %17, %"class.emp::Integer"* %5, %"class.emp::Integer"* dereferenceable(16) %11)
          to label %47 unwind label %75

; <label>:47:                                     ; preds = %46
  invoke void @_ZNK3emp7IntegermiERKS0_(%"class.emp::Integer"* sret %18, %"class.emp::Integer"* %5, %"class.emp::Integer"* dereferenceable(16) %11)
          to label %48 unwind label %79

; <label>:48:                                     ; preds = %47
  invoke void @_ZNK3emp7IntegermlERKS0_(%"class.emp::Integer"* sret %16, %"class.emp::Integer"* %17, %"class.emp::Integer"* dereferenceable(16) %18)
          to label %49 unwind label %83

; <label>:49:                                     ; preds = %48
  invoke void @_ZNK3emp7IntegermiERKS0_(%"class.emp::Integer"* sret %20, %"class.emp::Integer"* %7, %"class.emp::Integer"* dereferenceable(16) %13)
          to label %50 unwind label %87

; <label>:50:                                     ; preds = %49
  invoke void @_ZNK3emp7IntegermiERKS0_(%"class.emp::Integer"* sret %21, %"class.emp::Integer"* %7, %"class.emp::Integer"* dereferenceable(16) %13)
          to label %51 unwind label %91

; <label>:51:                                     ; preds = %50
  invoke void @_ZNK3emp7IntegermlERKS0_(%"class.emp::Integer"* sret %19, %"class.emp::Integer"* %20, %"class.emp::Integer"* dereferenceable(16) %21)
          to label %52 unwind label %95

; <label>:52:                                     ; preds = %51
  invoke void @_ZNK3emp7IntegerplERKS0_(%"class.emp::Integer"* sret %15, %"class.emp::Integer"* %16, %"class.emp::Integer"* dereferenceable(16) %19)
          to label %53 unwind label %99

; <label>:53:                                     ; preds = %52
  call void @_ZN3emp7IntegerD1Ev(%"class.emp::Integer"* %19) #3
  call void @_ZN3emp7IntegerD1Ev(%"class.emp::Integer"* %21) #3
  call void @_ZN3emp7IntegerD1Ev(%"class.emp::Integer"* %20) #3
  call void @_ZN3emp7IntegerD1Ev(%"class.emp::Integer"* %16) #3
  call void @_ZN3emp7IntegerD1Ev(%"class.emp::Integer"* %18) #3
  call void @_ZN3emp7IntegerD1Ev(%"class.emp::Integer"* %17) #3
  %54 = invoke i64 @_ZNK3emp7Integer10reveal_intEi(%"class.emp::Integer"* %15, i32 0)
          to label %55 unwind label %108

; <label>:55:                                     ; preds = %53
  %56 = sitofp i64 %54 to double
  %57 = call double @sqrt(double %56) #3
  %58 = fptosi double %57 to i32
  store i32 %58, i32* %22, align 4
  %59 = load i32, i32* %22, align 4
  %60 = invoke i32 (i8*, ...) @printf(i8* getelementptr inbounds ([17 x i8], [17 x i8]* @.str.4, i32 0, i32 0), i8* getelementptr inbounds ([18 x i8], [18 x i8]* @__FUNCTION__._Z17EuclideanDistanceRKN6sample5PointES2_, i32 0, i32 0), i32 %59)
          to label %61 unwind label %108

; <label>:61:                                     ; preds = %55
  %62 = load i32, i32* %22, align 4
  call void @_ZN3emp7IntegerD1Ev(%"class.emp::Integer"* %15) #3
  call void @_ZN3emp7IntegerD1Ev(%"class.emp::Integer"* %13) #3
  call void @_ZN3emp7IntegerD1Ev(%"class.emp::Integer"* %11) #3
  call void @_ZN3emp7IntegerD1Ev(%"class.emp::Integer"* %7) #3
  call void @_ZN3emp7IntegerD1Ev(%"class.emp::Integer"* %5) #3
  ret i32 %62

; <label>:63:                                     ; preds = %37, %2
  %64 = landingpad { i8*, i32 }
          cleanup
  %65 = extractvalue { i8*, i32 } %64, 0
  store i8* %65, i8** %9, align 8
  %66 = extractvalue { i8*, i32 } %64, 1
  store i32 %66, i32* %10, align 4
  br label %115

; <label>:67:                                     ; preds = %41, %38
  %68 = landingpad { i8*, i32 }
          cleanup
  %69 = extractvalue { i8*, i32 } %68, 0
  store i8* %69, i8** %9, align 8
  %70 = extractvalue { i8*, i32 } %68, 1
  store i32 %70, i32* %10, align 4
  br label %114

; <label>:71:                                     ; preds = %45, %42
  %72 = landingpad { i8*, i32 }
          cleanup
  %73 = extractvalue { i8*, i32 } %72, 0
  store i8* %73, i8** %9, align 8
  %74 = extractvalue { i8*, i32 } %72, 1
  store i32 %74, i32* %10, align 4
  br label %113

; <label>:75:                                     ; preds = %46
  %76 = landingpad { i8*, i32 }
          cleanup
  %77 = extractvalue { i8*, i32 } %76, 0
  store i8* %77, i8** %9, align 8
  %78 = extractvalue { i8*, i32 } %76, 1
  store i32 %78, i32* %10, align 4
  br label %112

; <label>:79:                                     ; preds = %47
  %80 = landingpad { i8*, i32 }
          cleanup
  %81 = extractvalue { i8*, i32 } %80, 0
  store i8* %81, i8** %9, align 8
  %82 = extractvalue { i8*, i32 } %80, 1
  store i32 %82, i32* %10, align 4
  br label %107

; <label>:83:                                     ; preds = %48
  %84 = landingpad { i8*, i32 }
          cleanup
  %85 = extractvalue { i8*, i32 } %84, 0
  store i8* %85, i8** %9, align 8
  %86 = extractvalue { i8*, i32 } %84, 1
  store i32 %86, i32* %10, align 4
  br label %106

; <label>:87:                                     ; preds = %49
  %88 = landingpad { i8*, i32 }
          cleanup
  %89 = extractvalue { i8*, i32 } %88, 0
  store i8* %89, i8** %9, align 8
  %90 = extractvalue { i8*, i32 } %88, 1
  store i32 %90, i32* %10, align 4
  br label %105

; <label>:91:                                     ; preds = %50
  %92 = landingpad { i8*, i32 }
          cleanup
  %93 = extractvalue { i8*, i32 } %92, 0
  store i8* %93, i8** %9, align 8
  %94 = extractvalue { i8*, i32 } %92, 1
  store i32 %94, i32* %10, align 4
  br label %104

; <label>:95:                                     ; preds = %51
  %96 = landingpad { i8*, i32 }
          cleanup
  %97 = extractvalue { i8*, i32 } %96, 0
  store i8* %97, i8** %9, align 8
  %98 = extractvalue { i8*, i32 } %96, 1
  store i32 %98, i32* %10, align 4
  br label %103

; <label>:99:                                     ; preds = %52
  %100 = landingpad { i8*, i32 }
          cleanup
  %101 = extractvalue { i8*, i32 } %100, 0
  store i8* %101, i8** %9, align 8
  %102 = extractvalue { i8*, i32 } %100, 1
  store i32 %102, i32* %10, align 4
  call void @_ZN3emp7IntegerD1Ev(%"class.emp::Integer"* %19) #3
  br label %103

; <label>:103:                                    ; preds = %99, %95
  call void @_ZN3emp7IntegerD1Ev(%"class.emp::Integer"* %21) #3
  br label %104

; <label>:104:                                    ; preds = %103, %91
  call void @_ZN3emp7IntegerD1Ev(%"class.emp::Integer"* %20) #3
  br label %105

; <label>:105:                                    ; preds = %104, %87
  call void @_ZN3emp7IntegerD1Ev(%"class.emp::Integer"* %16) #3
  br label %106

; <label>:106:                                    ; preds = %105, %83
  call void @_ZN3emp7IntegerD1Ev(%"class.emp::Integer"* %18) #3
  br label %107

; <label>:107:                                    ; preds = %106, %79
  call void @_ZN3emp7IntegerD1Ev(%"class.emp::Integer"* %17) #3
  br label %112

; <label>:108:                                    ; preds = %55, %53
  %109 = landingpad { i8*, i32 }
          cleanup
  %110 = extractvalue { i8*, i32 } %109, 0
  store i8* %110, i8** %9, align 8
  %111 = extractvalue { i8*, i32 } %109, 1
  store i32 %111, i32* %10, align 4
  call void @_ZN3emp7IntegerD1Ev(%"class.emp::Integer"* %15) #3
  br label %112

; <label>:112:                                    ; preds = %108, %107, %75
  call void @_ZN3emp7IntegerD1Ev(%"class.emp::Integer"* %13) #3
  br label %113

; <label>:113:                                    ; preds = %112, %71
  call void @_ZN3emp7IntegerD1Ev(%"class.emp::Integer"* %11) #3
  br label %114

; <label>:114:                                    ; preds = %113, %67
  call void @_ZN3emp7IntegerD1Ev(%"class.emp::Integer"* %7) #3
  br label %115

; <label>:115:                                    ; preds = %114, %63
  call void @_ZN3emp7IntegerD1Ev(%"class.emp::Integer"* %5) #3
  br label %116

; <label>:116:                                    ; preds = %115
  %117 = load i8*, i8** %9, align 8
  %118 = load i32, i32* %10, align 4
  %119 = insertvalue { i8*, i32 } undef, i8* %117, 0
  %120 = insertvalue { i8*, i32 } %119, i32 %118, 1
  resume { i8*, i32 } %120
}

; Function Attrs: noinline nounwind optnone uwtable
define linkonce_odr i32 @_ZNK6sample5Point1xEv(%"class.sample::Point"*) #5 comdat align 2 {
  %2 = alloca %"class.sample::Point"*, align 8
  store %"class.sample::Point"* %0, %"class.sample::Point"** %2, align 8
  %3 = load %"class.sample::Point"*, %"class.sample::Point"** %2, align 8
  %4 = getelementptr inbounds %"class.sample::Point", %"class.sample::Point"* %3, i32 0, i32 2
  %5 = load i32, i32* %4, align 8
  ret i32 %5
}

; Function Attrs: noinline nounwind optnone uwtable
define linkonce_odr i32 @_ZNK6sample5Point1yEv(%"class.sample::Point"*) #5 comdat align 2 {
  %2 = alloca %"class.sample::Point"*, align 8
  store %"class.sample::Point"* %0, %"class.sample::Point"** %2, align 8
  %3 = load %"class.sample::Point"*, %"class.sample::Point"** %2, align 8
  %4 = getelementptr inbounds %"class.sample::Point", %"class.sample::Point"* %3, i32 0, i32 3
  %5 = load i32, i32* %4, align 4
  ret i32 %5
}

declare void @_ZNK3emp7IntegermlERKS0_(%"class.emp::Integer"* sret, %"class.emp::Integer"*, %"class.emp::Integer"* dereferenceable(16)) #1

declare void @_ZNK3emp7IntegerplERKS0_(%"class.emp::Integer"* sret, %"class.emp::Integer"*, %"class.emp::Integer"* dereferenceable(16)) #1

; Function Attrs: nounwind
declare double @sqrt(double) #2

; Function Attrs: noinline optnone uwtable
define i32 @_Z7TestAddii(i32, i32) #4 personality i8* bitcast (i32 (...)* @__gxx_personality_v0 to i8*) {
  %3 = alloca i32, align 4
  %4 = alloca i32, align 4
  %5 = alloca %"class.emp::Integer", align 8
  %6 = alloca %"class.emp::Integer", align 8
  %7 = alloca i8*
  %8 = alloca i32
  %9 = alloca i32, align 4
  %10 = alloca %"class.emp::Integer", align 8
  store i32 %0, i32* %3, align 4
  store i32 %1, i32* %4, align 4
  %11 = load i32, i32* %3, align 4
  %12 = load i32, i32* %4, align 4
  %13 = call i32 (i8*, ...) @printf(i8* getelementptr inbounds ([22 x i8], [22 x i8]* @.str, i32 0, i32 0), i8* getelementptr inbounds ([8 x i8], [8 x i8]* @__FUNCTION__._Z7TestAddii, i32 0, i32 0), i32 %11, i32 %12)
  call void @_ZN3emp7IntegerC1ERKii(%"class.emp::Integer"* %5, i32* dereferenceable(4) %3, i32 1)
  invoke void @_ZN3emp7IntegerC1ERKii(%"class.emp::Integer"* %6, i32* dereferenceable(4) %4, i32 2)
          to label %14 unwind label %23

; <label>:14:                                     ; preds = %2
  invoke void @_ZNK3emp7IntegerplERKS0_(%"class.emp::Integer"* sret %10, %"class.emp::Integer"* %5, %"class.emp::Integer"* dereferenceable(16) %6)
          to label %15 unwind label %27

; <label>:15:                                     ; preds = %14
  %16 = invoke i64 @_ZNK3emp7Integer10reveal_intEi(%"class.emp::Integer"* %10, i32 0)
          to label %17 unwind label %31

; <label>:17:                                     ; preds = %15
  %18 = trunc i64 %16 to i32
  call void @_ZN3emp7IntegerD1Ev(%"class.emp::Integer"* %10) #3
  store i32 %18, i32* %9, align 4
  %19 = load i32, i32* %9, align 4
  %20 = invoke i32 (i8*, ...) @printf(i8* getelementptr inbounds ([27 x i8], [27 x i8]* @.str.5, i32 0, i32 0), i8* getelementptr inbounds ([8 x i8], [8 x i8]* @__FUNCTION__._Z7TestAddii, i32 0, i32 0), i32 %19)
          to label %21 unwind label %27

; <label>:21:                                     ; preds = %17
  %22 = load i32, i32* %9, align 4
  call void @_ZN3emp7IntegerD1Ev(%"class.emp::Integer"* %6) #3
  call void @_ZN3emp7IntegerD1Ev(%"class.emp::Integer"* %5) #3
  ret i32 %22

; <label>:23:                                     ; preds = %2
  %24 = landingpad { i8*, i32 }
          cleanup
  %25 = extractvalue { i8*, i32 } %24, 0
  store i8* %25, i8** %7, align 8
  %26 = extractvalue { i8*, i32 } %24, 1
  store i32 %26, i32* %8, align 4
  br label %36

; <label>:27:                                     ; preds = %17, %14
  %28 = landingpad { i8*, i32 }
          cleanup
  %29 = extractvalue { i8*, i32 } %28, 0
  store i8* %29, i8** %7, align 8
  %30 = extractvalue { i8*, i32 } %28, 1
  store i32 %30, i32* %8, align 4
  br label %35

; <label>:31:                                     ; preds = %15
  %32 = landingpad { i8*, i32 }
          cleanup
  %33 = extractvalue { i8*, i32 } %32, 0
  store i8* %33, i8** %7, align 8
  %34 = extractvalue { i8*, i32 } %32, 1
  store i32 %34, i32* %8, align 4
  call void @_ZN3emp7IntegerD1Ev(%"class.emp::Integer"* %10) #3
  br label %35

; <label>:35:                                     ; preds = %31, %27
  call void @_ZN3emp7IntegerD1Ev(%"class.emp::Integer"* %6) #3
  br label %36

; <label>:36:                                     ; preds = %35, %23
  call void @_ZN3emp7IntegerD1Ev(%"class.emp::Integer"* %5) #3
  br label %37

; <label>:37:                                     ; preds = %36
  %38 = load i8*, i8** %7, align 8
  %39 = load i32, i32* %8, align 4
  %40 = insertvalue { i8*, i32 } undef, i8* %38, 0
  %41 = insertvalue { i8*, i32 } %40, i32 %39, 1
  resume { i8*, i32 } %41
}

; Function Attrs: noinline optnone uwtable
define i32 @_Z7TestSubii(i32, i32) #4 personality i8* bitcast (i32 (...)* @__gxx_personality_v0 to i8*) {
  %3 = alloca i32, align 4
  %4 = alloca i32, align 4
  %5 = alloca %"class.emp::Integer", align 8
  %6 = alloca %"class.emp::Integer", align 8
  %7 = alloca i8*
  %8 = alloca i32
  %9 = alloca i32, align 4
  %10 = alloca %"class.emp::Integer", align 8
  store i32 %0, i32* %3, align 4
  store i32 %1, i32* %4, align 4
  %11 = load i32, i32* %3, align 4
  %12 = load i32, i32* %4, align 4
  %13 = call i32 (i8*, ...) @printf(i8* getelementptr inbounds ([22 x i8], [22 x i8]* @.str, i32 0, i32 0), i8* getelementptr inbounds ([8 x i8], [8 x i8]* @__FUNCTION__._Z7TestSubii, i32 0, i32 0), i32 %11, i32 %12)
  call void @_ZN3emp7IntegerC1ERKii(%"class.emp::Integer"* %5, i32* dereferenceable(4) %3, i32 1)
  invoke void @_ZN3emp7IntegerC1ERKii(%"class.emp::Integer"* %6, i32* dereferenceable(4) %4, i32 2)
          to label %14 unwind label %23

; <label>:14:                                     ; preds = %2
  invoke void @_ZNK3emp7IntegermiERKS0_(%"class.emp::Integer"* sret %10, %"class.emp::Integer"* %5, %"class.emp::Integer"* dereferenceable(16) %6)
          to label %15 unwind label %27

; <label>:15:                                     ; preds = %14
  %16 = invoke i64 @_ZNK3emp7Integer10reveal_intEi(%"class.emp::Integer"* %10, i32 0)
          to label %17 unwind label %31

; <label>:17:                                     ; preds = %15
  %18 = trunc i64 %16 to i32
  call void @_ZN3emp7IntegerD1Ev(%"class.emp::Integer"* %10) #3
  store i32 %18, i32* %9, align 4
  %19 = load i32, i32* %9, align 4
  %20 = invoke i32 (i8*, ...) @printf(i8* getelementptr inbounds ([27 x i8], [27 x i8]* @.str.1, i32 0, i32 0), i8* getelementptr inbounds ([8 x i8], [8 x i8]* @__FUNCTION__._Z7TestSubii, i32 0, i32 0), i32 %19)
          to label %21 unwind label %27

; <label>:21:                                     ; preds = %17
  %22 = load i32, i32* %9, align 4
  call void @_ZN3emp7IntegerD1Ev(%"class.emp::Integer"* %6) #3
  call void @_ZN3emp7IntegerD1Ev(%"class.emp::Integer"* %5) #3
  ret i32 %22

; <label>:23:                                     ; preds = %2
  %24 = landingpad { i8*, i32 }
          cleanup
  %25 = extractvalue { i8*, i32 } %24, 0
  store i8* %25, i8** %7, align 8
  %26 = extractvalue { i8*, i32 } %24, 1
  store i32 %26, i32* %8, align 4
  br label %36

; <label>:27:                                     ; preds = %17, %14
  %28 = landingpad { i8*, i32 }
          cleanup
  %29 = extractvalue { i8*, i32 } %28, 0
  store i8* %29, i8** %7, align 8
  %30 = extractvalue { i8*, i32 } %28, 1
  store i32 %30, i32* %8, align 4
  br label %35

; <label>:31:                                     ; preds = %15
  %32 = landingpad { i8*, i32 }
          cleanup
  %33 = extractvalue { i8*, i32 } %32, 0
  store i8* %33, i8** %7, align 8
  %34 = extractvalue { i8*, i32 } %32, 1
  store i32 %34, i32* %8, align 4
  call void @_ZN3emp7IntegerD1Ev(%"class.emp::Integer"* %10) #3
  br label %35

; <label>:35:                                     ; preds = %31, %27
  call void @_ZN3emp7IntegerD1Ev(%"class.emp::Integer"* %6) #3
  br label %36

; <label>:36:                                     ; preds = %35, %23
  call void @_ZN3emp7IntegerD1Ev(%"class.emp::Integer"* %5) #3
  br label %37

; <label>:37:                                     ; preds = %36
  %38 = load i8*, i8** %7, align 8
  %39 = load i32, i32* %8, align 4
  %40 = insertvalue { i8*, i32 } undef, i8* %38, 0
  %41 = insertvalue { i8*, i32 } %40, i32 %39, 1
  resume { i8*, i32 } %41
}

; Function Attrs: noinline optnone uwtable
define i32 @_Z7TestMulii(i32, i32) #4 personality i8* bitcast (i32 (...)* @__gxx_personality_v0 to i8*) {
  %3 = alloca i32, align 4
  %4 = alloca i32, align 4
  %5 = alloca %"class.emp::Integer", align 8
  %6 = alloca %"class.emp::Integer", align 8
  %7 = alloca i8*
  %8 = alloca i32
  %9 = alloca i32, align 4
  %10 = alloca %"class.emp::Integer", align 8
  store i32 %0, i32* %3, align 4
  store i32 %1, i32* %4, align 4
  %11 = load i32, i32* %3, align 4
  %12 = load i32, i32* %4, align 4
  %13 = call i32 (i8*, ...) @printf(i8* getelementptr inbounds ([22 x i8], [22 x i8]* @.str, i32 0, i32 0), i8* getelementptr inbounds ([8 x i8], [8 x i8]* @__FUNCTION__._Z7TestMulii, i32 0, i32 0), i32 %11, i32 %12)
  call void @_ZN3emp7IntegerC1ERKii(%"class.emp::Integer"* %5, i32* dereferenceable(4) %3, i32 1)
  invoke void @_ZN3emp7IntegerC1ERKii(%"class.emp::Integer"* %6, i32* dereferenceable(4) %4, i32 2)
          to label %14 unwind label %23

; <label>:14:                                     ; preds = %2
  invoke void @_ZNK3emp7IntegermlERKS0_(%"class.emp::Integer"* sret %10, %"class.emp::Integer"* %5, %"class.emp::Integer"* dereferenceable(16) %6)
          to label %15 unwind label %27

; <label>:15:                                     ; preds = %14
  %16 = invoke i64 @_ZNK3emp7Integer10reveal_intEi(%"class.emp::Integer"* %10, i32 0)
          to label %17 unwind label %31

; <label>:17:                                     ; preds = %15
  %18 = trunc i64 %16 to i32
  call void @_ZN3emp7IntegerD1Ev(%"class.emp::Integer"* %10) #3
  store i32 %18, i32* %9, align 4
  %19 = load i32, i32* %9, align 4
  %20 = invoke i32 (i8*, ...) @printf(i8* getelementptr inbounds ([27 x i8], [27 x i8]* @.str.6, i32 0, i32 0), i8* getelementptr inbounds ([8 x i8], [8 x i8]* @__FUNCTION__._Z7TestMulii, i32 0, i32 0), i32 %19)
          to label %21 unwind label %27

; <label>:21:                                     ; preds = %17
  %22 = load i32, i32* %9, align 4
  call void @_ZN3emp7IntegerD1Ev(%"class.emp::Integer"* %6) #3
  call void @_ZN3emp7IntegerD1Ev(%"class.emp::Integer"* %5) #3
  ret i32 %22

; <label>:23:                                     ; preds = %2
  %24 = landingpad { i8*, i32 }
          cleanup
  %25 = extractvalue { i8*, i32 } %24, 0
  store i8* %25, i8** %7, align 8
  %26 = extractvalue { i8*, i32 } %24, 1
  store i32 %26, i32* %8, align 4
  br label %36

; <label>:27:                                     ; preds = %17, %14
  %28 = landingpad { i8*, i32 }
          cleanup
  %29 = extractvalue { i8*, i32 } %28, 0
  store i8* %29, i8** %7, align 8
  %30 = extractvalue { i8*, i32 } %28, 1
  store i32 %30, i32* %8, align 4
  br label %35

; <label>:31:                                     ; preds = %15
  %32 = landingpad { i8*, i32 }
          cleanup
  %33 = extractvalue { i8*, i32 } %32, 0
  store i8* %33, i8** %7, align 8
  %34 = extractvalue { i8*, i32 } %32, 1
  store i32 %34, i32* %8, align 4
  call void @_ZN3emp7IntegerD1Ev(%"class.emp::Integer"* %10) #3
  br label %35

; <label>:35:                                     ; preds = %31, %27
  call void @_ZN3emp7IntegerD1Ev(%"class.emp::Integer"* %6) #3
  br label %36

; <label>:36:                                     ; preds = %35, %23
  call void @_ZN3emp7IntegerD1Ev(%"class.emp::Integer"* %5) #3
  br label %37

; <label>:37:                                     ; preds = %36
  %38 = load i8*, i8** %7, align 8
  %39 = load i32, i32* %8, align 4
  %40 = insertvalue { i8*, i32 } undef, i8* %38, 0
  %41 = insertvalue { i8*, i32 } %40, i32 %39, 1
  resume { i8*, i32 } %41
}

; Function Attrs: noinline optnone uwtable
define i32 @_Z7TestDivii(i32, i32) #4 personality i8* bitcast (i32 (...)* @__gxx_personality_v0 to i8*) {
  %3 = alloca i32, align 4
  %4 = alloca i32, align 4
  %5 = alloca %"class.emp::Integer", align 8
  %6 = alloca %"class.emp::Integer", align 8
  %7 = alloca i8*
  %8 = alloca i32
  %9 = alloca i32, align 4
  %10 = alloca %"class.emp::Integer", align 8
  store i32 %0, i32* %3, align 4
  store i32 %1, i32* %4, align 4
  %11 = load i32, i32* %3, align 4
  %12 = load i32, i32* %4, align 4
  %13 = call i32 (i8*, ...) @printf(i8* getelementptr inbounds ([22 x i8], [22 x i8]* @.str, i32 0, i32 0), i8* getelementptr inbounds ([8 x i8], [8 x i8]* @__FUNCTION__._Z7TestDivii, i32 0, i32 0), i32 %11, i32 %12)
  call void @_ZN3emp7IntegerC1ERKii(%"class.emp::Integer"* %5, i32* dereferenceable(4) %3, i32 1)
  invoke void @_ZN3emp7IntegerC1ERKii(%"class.emp::Integer"* %6, i32* dereferenceable(4) %4, i32 2)
          to label %14 unwind label %23

; <label>:14:                                     ; preds = %2
  invoke void @_ZNK3emp7IntegerdvERKS0_(%"class.emp::Integer"* sret %10, %"class.emp::Integer"* %5, %"class.emp::Integer"* dereferenceable(16) %6)
          to label %15 unwind label %27

; <label>:15:                                     ; preds = %14
  %16 = invoke i64 @_ZNK3emp7Integer10reveal_intEi(%"class.emp::Integer"* %10, i32 0)
          to label %17 unwind label %31

; <label>:17:                                     ; preds = %15
  %18 = trunc i64 %16 to i32
  call void @_ZN3emp7IntegerD1Ev(%"class.emp::Integer"* %10) #3
  store i32 %18, i32* %9, align 4
  %19 = load i32, i32* %9, align 4
  %20 = invoke i32 (i8*, ...) @printf(i8* getelementptr inbounds ([27 x i8], [27 x i8]* @.str.7, i32 0, i32 0), i8* getelementptr inbounds ([8 x i8], [8 x i8]* @__FUNCTION__._Z7TestDivii, i32 0, i32 0), i32 %19)
          to label %21 unwind label %27

; <label>:21:                                     ; preds = %17
  %22 = load i32, i32* %9, align 4
  call void @_ZN3emp7IntegerD1Ev(%"class.emp::Integer"* %6) #3
  call void @_ZN3emp7IntegerD1Ev(%"class.emp::Integer"* %5) #3
  ret i32 %22

; <label>:23:                                     ; preds = %2
  %24 = landingpad { i8*, i32 }
          cleanup
  %25 = extractvalue { i8*, i32 } %24, 0
  store i8* %25, i8** %7, align 8
  %26 = extractvalue { i8*, i32 } %24, 1
  store i32 %26, i32* %8, align 4
  br label %36

; <label>:27:                                     ; preds = %17, %14
  %28 = landingpad { i8*, i32 }
          cleanup
  %29 = extractvalue { i8*, i32 } %28, 0
  store i8* %29, i8** %7, align 8
  %30 = extractvalue { i8*, i32 } %28, 1
  store i32 %30, i32* %8, align 4
  br label %35

; <label>:31:                                     ; preds = %15
  %32 = landingpad { i8*, i32 }
          cleanup
  %33 = extractvalue { i8*, i32 } %32, 0
  store i8* %33, i8** %7, align 8
  %34 = extractvalue { i8*, i32 } %32, 1
  store i32 %34, i32* %8, align 4
  call void @_ZN3emp7IntegerD1Ev(%"class.emp::Integer"* %10) #3
  br label %35

; <label>:35:                                     ; preds = %31, %27
  call void @_ZN3emp7IntegerD1Ev(%"class.emp::Integer"* %6) #3
  br label %36

; <label>:36:                                     ; preds = %35, %23
  call void @_ZN3emp7IntegerD1Ev(%"class.emp::Integer"* %5) #3
  br label %37

; <label>:37:                                     ; preds = %36
  %38 = load i8*, i8** %7, align 8
  %39 = load i32, i32* %8, align 4
  %40 = insertvalue { i8*, i32 } undef, i8* %38, 0
  %41 = insertvalue { i8*, i32 } %40, i32 %39, 1
  resume { i8*, i32 } %41
}

declare void @_ZNK3emp7IntegerdvERKS0_(%"class.emp::Integer"* sret, %"class.emp::Integer"*, %"class.emp::Integer"* dereferenceable(16)) #1

; Function Attrs: noinline optnone uwtable
define i32 @_Z7TestModii(i32, i32) #4 personality i8* bitcast (i32 (...)* @__gxx_personality_v0 to i8*) {
  %3 = alloca i32, align 4
  %4 = alloca i32, align 4
  %5 = alloca %"class.emp::Integer", align 8
  %6 = alloca %"class.emp::Integer", align 8
  %7 = alloca i8*
  %8 = alloca i32
  %9 = alloca i32, align 4
  %10 = alloca %"class.emp::Integer", align 8
  store i32 %0, i32* %3, align 4
  store i32 %1, i32* %4, align 4
  %11 = load i32, i32* %3, align 4
  %12 = load i32, i32* %4, align 4
  %13 = call i32 (i8*, ...) @printf(i8* getelementptr inbounds ([22 x i8], [22 x i8]* @.str, i32 0, i32 0), i8* getelementptr inbounds ([8 x i8], [8 x i8]* @__FUNCTION__._Z7TestModii, i32 0, i32 0), i32 %11, i32 %12)
  call void @_ZN3emp7IntegerC1ERKii(%"class.emp::Integer"* %5, i32* dereferenceable(4) %3, i32 1)
  invoke void @_ZN3emp7IntegerC1ERKii(%"class.emp::Integer"* %6, i32* dereferenceable(4) %4, i32 2)
          to label %14 unwind label %23

; <label>:14:                                     ; preds = %2
  invoke void @_ZNK3emp7IntegerrmERKS0_(%"class.emp::Integer"* sret %10, %"class.emp::Integer"* %5, %"class.emp::Integer"* dereferenceable(16) %6)
          to label %15 unwind label %27

; <label>:15:                                     ; preds = %14
  %16 = invoke i64 @_ZNK3emp7Integer10reveal_intEi(%"class.emp::Integer"* %10, i32 0)
          to label %17 unwind label %31

; <label>:17:                                     ; preds = %15
  %18 = trunc i64 %16 to i32
  call void @_ZN3emp7IntegerD1Ev(%"class.emp::Integer"* %10) #3
  store i32 %18, i32* %9, align 4
  %19 = load i32, i32* %9, align 4
  %20 = invoke i32 (i8*, ...) @printf(i8* getelementptr inbounds ([28 x i8], [28 x i8]* @.str.8, i32 0, i32 0), i8* getelementptr inbounds ([8 x i8], [8 x i8]* @__FUNCTION__._Z7TestModii, i32 0, i32 0), i32 %19)
          to label %21 unwind label %27

; <label>:21:                                     ; preds = %17
  %22 = load i32, i32* %9, align 4
  call void @_ZN3emp7IntegerD1Ev(%"class.emp::Integer"* %6) #3
  call void @_ZN3emp7IntegerD1Ev(%"class.emp::Integer"* %5) #3
  ret i32 %22

; <label>:23:                                     ; preds = %2
  %24 = landingpad { i8*, i32 }
          cleanup
  %25 = extractvalue { i8*, i32 } %24, 0
  store i8* %25, i8** %7, align 8
  %26 = extractvalue { i8*, i32 } %24, 1
  store i32 %26, i32* %8, align 4
  br label %36

; <label>:27:                                     ; preds = %17, %14
  %28 = landingpad { i8*, i32 }
          cleanup
  %29 = extractvalue { i8*, i32 } %28, 0
  store i8* %29, i8** %7, align 8
  %30 = extractvalue { i8*, i32 } %28, 1
  store i32 %30, i32* %8, align 4
  br label %35

; <label>:31:                                     ; preds = %15
  %32 = landingpad { i8*, i32 }
          cleanup
  %33 = extractvalue { i8*, i32 } %32, 0
  store i8* %33, i8** %7, align 8
  %34 = extractvalue { i8*, i32 } %32, 1
  store i32 %34, i32* %8, align 4
  call void @_ZN3emp7IntegerD1Ev(%"class.emp::Integer"* %10) #3
  br label %35

; <label>:35:                                     ; preds = %31, %27
  call void @_ZN3emp7IntegerD1Ev(%"class.emp::Integer"* %6) #3
  br label %36

; <label>:36:                                     ; preds = %35, %23
  call void @_ZN3emp7IntegerD1Ev(%"class.emp::Integer"* %5) #3
  br label %37

; <label>:37:                                     ; preds = %36
  %38 = load i8*, i8** %7, align 8
  %39 = load i32, i32* %8, align 4
  %40 = insertvalue { i8*, i32 } undef, i8* %38, 0
  %41 = insertvalue { i8*, i32 } %40, i32 %39, 1
  resume { i8*, i32 } %41
}

declare void @_ZNK3emp7IntegerrmERKS0_(%"class.emp::Integer"* sret, %"class.emp::Integer"*, %"class.emp::Integer"* dereferenceable(16)) #1

; Function Attrs: noinline optnone uwtable
define i32 @_Z7TestAndii(i32, i32) #4 personality i8* bitcast (i32 (...)* @__gxx_personality_v0 to i8*) {
  %3 = alloca i32, align 4
  %4 = alloca i32, align 4
  %5 = alloca %"class.emp::Integer", align 8
  %6 = alloca %"class.emp::Integer", align 8
  %7 = alloca i8*
  %8 = alloca i32
  %9 = alloca i32, align 4
  %10 = alloca %"class.emp::Integer", align 8
  store i32 %0, i32* %3, align 4
  store i32 %1, i32* %4, align 4
  %11 = load i32, i32* %3, align 4
  %12 = load i32, i32* %4, align 4
  %13 = call i32 (i8*, ...) @printf(i8* getelementptr inbounds ([22 x i8], [22 x i8]* @.str, i32 0, i32 0), i8* getelementptr inbounds ([8 x i8], [8 x i8]* @__FUNCTION__._Z7TestAndii, i32 0, i32 0), i32 %11, i32 %12)
  call void @_ZN3emp7IntegerC1ERKii(%"class.emp::Integer"* %5, i32* dereferenceable(4) %3, i32 1)
  invoke void @_ZN3emp7IntegerC1ERKii(%"class.emp::Integer"* %6, i32* dereferenceable(4) %4, i32 2)
          to label %14 unwind label %23

; <label>:14:                                     ; preds = %2
  invoke void @_ZNK3emp7IntegeranERKS0_(%"class.emp::Integer"* sret %10, %"class.emp::Integer"* %5, %"class.emp::Integer"* dereferenceable(16) %6)
          to label %15 unwind label %27

; <label>:15:                                     ; preds = %14
  %16 = invoke i64 @_ZNK3emp7Integer10reveal_intEi(%"class.emp::Integer"* %10, i32 0)
          to label %17 unwind label %31

; <label>:17:                                     ; preds = %15
  %18 = trunc i64 %16 to i32
  call void @_ZN3emp7IntegerD1Ev(%"class.emp::Integer"* %10) #3
  store i32 %18, i32* %9, align 4
  %19 = load i32, i32* %9, align 4
  %20 = invoke i32 (i8*, ...) @printf(i8* getelementptr inbounds ([27 x i8], [27 x i8]* @.str.9, i32 0, i32 0), i8* getelementptr inbounds ([8 x i8], [8 x i8]* @__FUNCTION__._Z7TestAndii, i32 0, i32 0), i32 %19)
          to label %21 unwind label %27

; <label>:21:                                     ; preds = %17
  %22 = load i32, i32* %9, align 4
  call void @_ZN3emp7IntegerD1Ev(%"class.emp::Integer"* %6) #3
  call void @_ZN3emp7IntegerD1Ev(%"class.emp::Integer"* %5) #3
  ret i32 %22

; <label>:23:                                     ; preds = %2
  %24 = landingpad { i8*, i32 }
          cleanup
  %25 = extractvalue { i8*, i32 } %24, 0
  store i8* %25, i8** %7, align 8
  %26 = extractvalue { i8*, i32 } %24, 1
  store i32 %26, i32* %8, align 4
  br label %36

; <label>:27:                                     ; preds = %17, %14
  %28 = landingpad { i8*, i32 }
          cleanup
  %29 = extractvalue { i8*, i32 } %28, 0
  store i8* %29, i8** %7, align 8
  %30 = extractvalue { i8*, i32 } %28, 1
  store i32 %30, i32* %8, align 4
  br label %35

; <label>:31:                                     ; preds = %15
  %32 = landingpad { i8*, i32 }
          cleanup
  %33 = extractvalue { i8*, i32 } %32, 0
  store i8* %33, i8** %7, align 8
  %34 = extractvalue { i8*, i32 } %32, 1
  store i32 %34, i32* %8, align 4
  call void @_ZN3emp7IntegerD1Ev(%"class.emp::Integer"* %10) #3
  br label %35

; <label>:35:                                     ; preds = %31, %27
  call void @_ZN3emp7IntegerD1Ev(%"class.emp::Integer"* %6) #3
  br label %36

; <label>:36:                                     ; preds = %35, %23
  call void @_ZN3emp7IntegerD1Ev(%"class.emp::Integer"* %5) #3
  br label %37

; <label>:37:                                     ; preds = %36
  %38 = load i8*, i8** %7, align 8
  %39 = load i32, i32* %8, align 4
  %40 = insertvalue { i8*, i32 } undef, i8* %38, 0
  %41 = insertvalue { i8*, i32 } %40, i32 %39, 1
  resume { i8*, i32 } %41
}

declare void @_ZNK3emp7IntegeranERKS0_(%"class.emp::Integer"* sret, %"class.emp::Integer"*, %"class.emp::Integer"* dereferenceable(16)) #1

; Function Attrs: noinline optnone uwtable
define i32 @_Z6TestOrii(i32, i32) #4 personality i8* bitcast (i32 (...)* @__gxx_personality_v0 to i8*) {
  %3 = alloca i32, align 4
  %4 = alloca i32, align 4
  %5 = alloca %"class.emp::Integer", align 8
  %6 = alloca %"class.emp::Integer", align 8
  %7 = alloca i8*
  %8 = alloca i32
  %9 = alloca i32, align 4
  %10 = alloca %"class.emp::Integer", align 8
  store i32 %0, i32* %3, align 4
  store i32 %1, i32* %4, align 4
  %11 = load i32, i32* %3, align 4
  %12 = load i32, i32* %4, align 4
  %13 = call i32 (i8*, ...) @printf(i8* getelementptr inbounds ([22 x i8], [22 x i8]* @.str, i32 0, i32 0), i8* getelementptr inbounds ([7 x i8], [7 x i8]* @__FUNCTION__._Z6TestOrii, i32 0, i32 0), i32 %11, i32 %12)
  call void @_ZN3emp7IntegerC1ERKii(%"class.emp::Integer"* %5, i32* dereferenceable(4) %3, i32 1)
  invoke void @_ZN3emp7IntegerC1ERKii(%"class.emp::Integer"* %6, i32* dereferenceable(4) %4, i32 2)
          to label %14 unwind label %23

; <label>:14:                                     ; preds = %2
  invoke void @_ZNK3emp7IntegerorERKS0_(%"class.emp::Integer"* sret %10, %"class.emp::Integer"* %5, %"class.emp::Integer"* dereferenceable(16) %6)
          to label %15 unwind label %27

; <label>:15:                                     ; preds = %14
  %16 = invoke i64 @_ZNK3emp7Integer10reveal_intEi(%"class.emp::Integer"* %10, i32 0)
          to label %17 unwind label %31

; <label>:17:                                     ; preds = %15
  %18 = trunc i64 %16 to i32
  call void @_ZN3emp7IntegerD1Ev(%"class.emp::Integer"* %10) #3
  store i32 %18, i32* %9, align 4
  %19 = load i32, i32* %9, align 4
  %20 = invoke i32 (i8*, ...) @printf(i8* getelementptr inbounds ([27 x i8], [27 x i8]* @.str.10, i32 0, i32 0), i8* getelementptr inbounds ([7 x i8], [7 x i8]* @__FUNCTION__._Z6TestOrii, i32 0, i32 0), i32 %19)
          to label %21 unwind label %27

; <label>:21:                                     ; preds = %17
  %22 = load i32, i32* %9, align 4
  call void @_ZN3emp7IntegerD1Ev(%"class.emp::Integer"* %6) #3
  call void @_ZN3emp7IntegerD1Ev(%"class.emp::Integer"* %5) #3
  ret i32 %22

; <label>:23:                                     ; preds = %2
  %24 = landingpad { i8*, i32 }
          cleanup
  %25 = extractvalue { i8*, i32 } %24, 0
  store i8* %25, i8** %7, align 8
  %26 = extractvalue { i8*, i32 } %24, 1
  store i32 %26, i32* %8, align 4
  br label %36

; <label>:27:                                     ; preds = %17, %14
  %28 = landingpad { i8*, i32 }
          cleanup
  %29 = extractvalue { i8*, i32 } %28, 0
  store i8* %29, i8** %7, align 8
  %30 = extractvalue { i8*, i32 } %28, 1
  store i32 %30, i32* %8, align 4
  br label %35

; <label>:31:                                     ; preds = %15
  %32 = landingpad { i8*, i32 }
          cleanup
  %33 = extractvalue { i8*, i32 } %32, 0
  store i8* %33, i8** %7, align 8
  %34 = extractvalue { i8*, i32 } %32, 1
  store i32 %34, i32* %8, align 4
  call void @_ZN3emp7IntegerD1Ev(%"class.emp::Integer"* %10) #3
  br label %35

; <label>:35:                                     ; preds = %31, %27
  call void @_ZN3emp7IntegerD1Ev(%"class.emp::Integer"* %6) #3
  br label %36

; <label>:36:                                     ; preds = %35, %23
  call void @_ZN3emp7IntegerD1Ev(%"class.emp::Integer"* %5) #3
  br label %37

; <label>:37:                                     ; preds = %36
  %38 = load i8*, i8** %7, align 8
  %39 = load i32, i32* %8, align 4
  %40 = insertvalue { i8*, i32 } undef, i8* %38, 0
  %41 = insertvalue { i8*, i32 } %40, i32 %39, 1
  resume { i8*, i32 } %41
}

declare void @_ZNK3emp7IntegerorERKS0_(%"class.emp::Integer"* sret, %"class.emp::Integer"*, %"class.emp::Integer"* dereferenceable(16)) #1

; Function Attrs: noinline optnone uwtable
define i32 @_Z7TestXorii(i32, i32) #4 personality i8* bitcast (i32 (...)* @__gxx_personality_v0 to i8*) {
  %3 = alloca i32, align 4
  %4 = alloca i32, align 4
  %5 = alloca %"class.emp::Integer", align 8
  %6 = alloca %"class.emp::Integer", align 8
  %7 = alloca i8*
  %8 = alloca i32
  %9 = alloca i32, align 4
  %10 = alloca %"class.emp::Integer", align 8
  store i32 %0, i32* %3, align 4
  store i32 %1, i32* %4, align 4
  %11 = load i32, i32* %3, align 4
  %12 = load i32, i32* %4, align 4
  %13 = call i32 (i8*, ...) @printf(i8* getelementptr inbounds ([22 x i8], [22 x i8]* @.str, i32 0, i32 0), i8* getelementptr inbounds ([8 x i8], [8 x i8]* @__FUNCTION__._Z7TestXorii, i32 0, i32 0), i32 %11, i32 %12)
  call void @_ZN3emp7IntegerC1ERKii(%"class.emp::Integer"* %5, i32* dereferenceable(4) %3, i32 1)
  invoke void @_ZN3emp7IntegerC1ERKii(%"class.emp::Integer"* %6, i32* dereferenceable(4) %4, i32 2)
          to label %14 unwind label %23

; <label>:14:                                     ; preds = %2
  invoke void @_ZNK3emp7IntegereoERKS0_(%"class.emp::Integer"* sret %10, %"class.emp::Integer"* %5, %"class.emp::Integer"* dereferenceable(16) %6)
          to label %15 unwind label %27

; <label>:15:                                     ; preds = %14
  %16 = invoke i64 @_ZNK3emp7Integer10reveal_intEi(%"class.emp::Integer"* %10, i32 0)
          to label %17 unwind label %31

; <label>:17:                                     ; preds = %15
  %18 = trunc i64 %16 to i32
  call void @_ZN3emp7IntegerD1Ev(%"class.emp::Integer"* %10) #3
  store i32 %18, i32* %9, align 4
  %19 = load i32, i32* %9, align 4
  %20 = invoke i32 (i8*, ...) @printf(i8* getelementptr inbounds ([27 x i8], [27 x i8]* @.str.5, i32 0, i32 0), i8* getelementptr inbounds ([8 x i8], [8 x i8]* @__FUNCTION__._Z7TestXorii, i32 0, i32 0), i32 %19)
          to label %21 unwind label %27

; <label>:21:                                     ; preds = %17
  %22 = load i32, i32* %9, align 4
  call void @_ZN3emp7IntegerD1Ev(%"class.emp::Integer"* %6) #3
  call void @_ZN3emp7IntegerD1Ev(%"class.emp::Integer"* %5) #3
  ret i32 %22

; <label>:23:                                     ; preds = %2
  %24 = landingpad { i8*, i32 }
          cleanup
  %25 = extractvalue { i8*, i32 } %24, 0
  store i8* %25, i8** %7, align 8
  %26 = extractvalue { i8*, i32 } %24, 1
  store i32 %26, i32* %8, align 4
  br label %36

; <label>:27:                                     ; preds = %17, %14
  %28 = landingpad { i8*, i32 }
          cleanup
  %29 = extractvalue { i8*, i32 } %28, 0
  store i8* %29, i8** %7, align 8
  %30 = extractvalue { i8*, i32 } %28, 1
  store i32 %30, i32* %8, align 4
  br label %35

; <label>:31:                                     ; preds = %15
  %32 = landingpad { i8*, i32 }
          cleanup
  %33 = extractvalue { i8*, i32 } %32, 0
  store i8* %33, i8** %7, align 8
  %34 = extractvalue { i8*, i32 } %32, 1
  store i32 %34, i32* %8, align 4
  call void @_ZN3emp7IntegerD1Ev(%"class.emp::Integer"* %10) #3
  br label %35

; <label>:35:                                     ; preds = %31, %27
  call void @_ZN3emp7IntegerD1Ev(%"class.emp::Integer"* %6) #3
  br label %36

; <label>:36:                                     ; preds = %35, %23
  call void @_ZN3emp7IntegerD1Ev(%"class.emp::Integer"* %5) #3
  br label %37

; <label>:37:                                     ; preds = %36
  %38 = load i8*, i8** %7, align 8
  %39 = load i32, i32* %8, align 4
  %40 = insertvalue { i8*, i32 } undef, i8* %38, 0
  %41 = insertvalue { i8*, i32 } %40, i32 %39, 1
  resume { i8*, i32 } %41
}

declare void @_ZNK3emp7IntegereoERKS0_(%"class.emp::Integer"* sret, %"class.emp::Integer"*, %"class.emp::Integer"* dereferenceable(16)) #1

; Function Attrs: noinline nounwind optnone uwtable
define i64 @_Z8TestLongll(i64, i64) #5 {
  %3 = alloca i64, align 8
  %4 = alloca i64, align 8
  store i64 %0, i64* %3, align 8
  store i64 %1, i64* %4, align 8
  ret i64 123456789012345
}

; Function Attrs: noinline nounwind optnone uwtable
define zeroext i1 @_Z8TestBoolbb(i1 zeroext, i1 zeroext) #5 {
  %3 = alloca i8, align 1
  %4 = alloca i8, align 1
  %5 = zext i1 %0 to i8
  store i8 %5, i8* %3, align 1
  %6 = zext i1 %1 to i8
  store i8 %6, i8* %4, align 1
  %7 = load i8, i8* %3, align 1
  %8 = trunc i8 %7 to i1
  br i1 %8, label %9, label %12

; <label>:9:                                      ; preds = %2
  %10 = load i8, i8* %4, align 1
  %11 = trunc i8 %10 to i1
  br label %12

; <label>:12:                                     ; preds = %9, %2
  %13 = phi i1 [ false, %2 ], [ %11, %9 ]
  ret i1 %13
}

; Function Attrs: noinline nounwind optnone uwtable
define float @_Z9TestFloatff(float, float) #5 {
  %3 = alloca float, align 4
  %4 = alloca float, align 4
  store float %0, float* %3, align 4
  store float %1, float* %4, align 4
  ret float 0x40FE240A80000000
}

; Function Attrs: noinline nounwind optnone uwtable
define double @_Z10TestDoubledd(double, double) #5 {
  %3 = alloca double, align 8
  %4 = alloca double, align 8
  store double %0, double* %3, align 8
  store double %1, double* %4, align 8
  ret double 0x4165682611D04E21
}

; Function Attrs: noinline optnone uwtable
define void @_Z10TestStringRKSsS0_(%"class.google::protobuf::internal::InternalMetadataWithArena"* noalias sret, %"class.google::protobuf::internal::InternalMetadataWithArena"* dereferenceable(8), %"class.google::protobuf::internal::InternalMetadataWithArena"* dereferenceable(8)) #4 {
  %4 = alloca %"class.google::protobuf::internal::InternalMetadataWithArena"*, align 8
  %5 = alloca %"class.google::protobuf::internal::InternalMetadataWithArena"*, align 8
  store %"class.google::protobuf::internal::InternalMetadataWithArena"* %1, %"class.google::protobuf::internal::InternalMetadataWithArena"** %4, align 8
  store %"class.google::protobuf::internal::InternalMetadataWithArena"* %2, %"class.google::protobuf::internal::InternalMetadataWithArena"** %5, align 8
  call void @_ZSt9to_stringi(%"class.google::protobuf::internal::InternalMetadataWithArena"* sret %0, i32 1234)
  ret void
}

; Function Attrs: noinline optnone uwtable
define linkonce_odr void @_ZSt9to_stringi(%"class.google::protobuf::internal::InternalMetadataWithArena"* noalias sret, i32) #4 comdat {
  %3 = alloca i32, align 4
  store i32 %1, i32* %3, align 4
  %4 = load i32, i32* %3, align 4
  call void (%"class.google::protobuf::internal::InternalMetadataWithArena"*, i32 (i8*, i64, i8*, %struct.__va_list_tag*)*, i64, i8*, ...) @_ZN9__gnu_cxx12__to_xstringISscEET_PFiPT0_mPKS2_P13__va_list_tagEmS5_z(%"class.google::protobuf::internal::InternalMetadataWithArena"* sret %0, i32 (i8*, i64, i8*, %struct.__va_list_tag*)* @vsnprintf, i64 16, i8* getelementptr inbounds ([3 x i8], [3 x i8]* @.str.18, i32 0, i32 0), i32 %4)
  ret void
}

; Function Attrs: nounwind
declare i32 @vsnprintf(i8*, i64, i8*, %struct.__va_list_tag*) #2

; Function Attrs: noinline optnone uwtable
define linkonce_odr void @_ZN9__gnu_cxx12__to_xstringISscEET_PFiPT0_mPKS2_P13__va_list_tagEmS5_z(%"class.google::protobuf::internal::InternalMetadataWithArena"* noalias sret, i32 (i8*, i64, i8*, %struct.__va_list_tag*)*, i64, i8*, ...) #4 comdat personality i8* bitcast (i32 (...)* @__gxx_personality_v0 to i8*) {
  %5 = alloca i32 (i8*, i64, i8*, %struct.__va_list_tag*)*, align 8
  %6 = alloca i64, align 8
  %7 = alloca i8*, align 8
  %8 = alloca i8*, align 8
  %9 = alloca [1 x %struct.__va_list_tag], align 16
  %10 = alloca i32, align 4
  %11 = alloca %"class.std::ios_base::Init", align 1
  %12 = alloca i8*
  %13 = alloca i32
  store i32 (i8*, i64, i8*, %struct.__va_list_tag*)* %1, i32 (i8*, i64, i8*, %struct.__va_list_tag*)** %5, align 8
  store i64 %2, i64* %6, align 8
  store i8* %3, i8** %7, align 8
  %14 = load i64, i64* %6, align 8
  %15 = mul i64 1, %14
  %16 = alloca i8, i64 %15, align 16
  store i8* %16, i8** %8, align 8
  %17 = getelementptr inbounds [1 x %struct.__va_list_tag], [1 x %struct.__va_list_tag]* %9, i32 0, i32 0
  %18 = bitcast %struct.__va_list_tag* %17 to i8*
  call void @llvm.va_start(i8* %18)
  %19 = load i32 (i8*, i64, i8*, %struct.__va_list_tag*)*, i32 (i8*, i64, i8*, %struct.__va_list_tag*)** %5, align 8
  %20 = load i8*, i8** %8, align 8
  %21 = load i64, i64* %6, align 8
  %22 = load i8*, i8** %7, align 8
  %23 = getelementptr inbounds [1 x %struct.__va_list_tag], [1 x %struct.__va_list_tag]* %9, i32 0, i32 0
  %24 = call i32 %19(i8* %20, i64 %21, i8* %22, %struct.__va_list_tag* %23)
  store i32 %24, i32* %10, align 4
  %25 = getelementptr inbounds [1 x %struct.__va_list_tag], [1 x %struct.__va_list_tag]* %9, i32 0, i32 0
  %26 = bitcast %struct.__va_list_tag* %25 to i8*
  call void @llvm.va_end(i8* %26)
  %27 = load i8*, i8** %8, align 8
  %28 = load i8*, i8** %8, align 8
  %29 = load i32, i32* %10, align 4
  %30 = sext i32 %29 to i64
  %31 = getelementptr inbounds i8, i8* %28, i64 %30
  call void @_ZNSaIcEC1Ev(%"class.std::ios_base::Init"* %11) #3
  invoke void @_ZNSsC2IPcEET_S1_RKSaIcE(%"class.google::protobuf::internal::InternalMetadataWithArena"* %0, i8* %27, i8* %31, %"class.std::ios_base::Init"* dereferenceable(1) %11)
          to label %32 unwind label %33

; <label>:32:                                     ; preds = %4
  call void @_ZNSaIcED1Ev(%"class.std::ios_base::Init"* %11) #3
  ret void

; <label>:33:                                     ; preds = %4
  %34 = landingpad { i8*, i32 }
          cleanup
  %35 = extractvalue { i8*, i32 } %34, 0
  store i8* %35, i8** %12, align 8
  %36 = extractvalue { i8*, i32 } %34, 1
  store i32 %36, i32* %13, align 4
  call void @_ZNSaIcED1Ev(%"class.std::ios_base::Init"* %11) #3
  br label %37

; <label>:37:                                     ; preds = %33
  %38 = load i8*, i8** %12, align 8
  %39 = load i32, i32* %13, align 4
  %40 = insertvalue { i8*, i32 } undef, i8* %38, 0
  %41 = insertvalue { i8*, i32 } %40, i32 %39, 1
  resume { i8*, i32 } %41
}

; Function Attrs: nounwind
declare void @llvm.va_start(i8*) #3

; Function Attrs: nounwind
declare void @llvm.va_end(i8*) #3

; Function Attrs: nounwind
declare void @_ZNSaIcEC1Ev(%"class.std::ios_base::Init"*) unnamed_addr #2

; Function Attrs: noinline optnone uwtable
define linkonce_odr void @_ZNSsC2IPcEET_S1_RKSaIcE(%"class.google::protobuf::internal::InternalMetadataWithArena"*, i8*, i8*, %"class.std::ios_base::Init"* dereferenceable(1)) unnamed_addr #4 comdat align 2 {
  %5 = alloca %"class.google::protobuf::internal::InternalMetadataWithArena"*, align 8
  %6 = alloca i8*, align 8
  %7 = alloca i8*, align 8
  %8 = alloca %"class.std::ios_base::Init"*, align 8
  store %"class.google::protobuf::internal::InternalMetadataWithArena"* %0, %"class.google::protobuf::internal::InternalMetadataWithArena"** %5, align 8
  store i8* %1, i8** %6, align 8
  store i8* %2, i8** %7, align 8
  store %"class.std::ios_base::Init"* %3, %"class.std::ios_base::Init"** %8, align 8
  %9 = load %"class.google::protobuf::internal::InternalMetadataWithArena"*, %"class.google::protobuf::internal::InternalMetadataWithArena"** %5, align 8
  %10 = getelementptr inbounds %"class.google::protobuf::internal::InternalMetadataWithArena", %"class.google::protobuf::internal::InternalMetadataWithArena"* %9, i32 0, i32 0
  %11 = load i8*, i8** %6, align 8
  %12 = load i8*, i8** %7, align 8
  %13 = load %"class.std::ios_base::Init"*, %"class.std::ios_base::Init"** %8, align 8
  %14 = call i8* @_ZNSs12_S_constructIPcEES0_T_S1_RKSaIcE(i8* %11, i8* %12, %"class.std::ios_base::Init"* dereferenceable(1) %13)
  %15 = load %"class.std::ios_base::Init"*, %"class.std::ios_base::Init"** %8, align 8
  call void @_ZNSs12_Alloc_hiderC1EPcRKSaIcE(%"class.google::protobuf::internal::InternalMetadataWithArenaBase"* %10, i8* %14, %"class.std::ios_base::Init"* dereferenceable(1) %15) #3
  ret void
}

; Function Attrs: nounwind
declare void @_ZNSaIcED1Ev(%"class.std::ios_base::Init"*) unnamed_addr #2

; Function Attrs: noinline optnone uwtable
define linkonce_odr i8* @_ZNSs12_S_constructIPcEES0_T_S1_RKSaIcE(i8*, i8*, %"class.std::ios_base::Init"* dereferenceable(1)) #4 comdat align 2 {
  %4 = alloca i8*, align 8
  %5 = alloca i8*, align 8
  %6 = alloca %"class.std::ios_base::Init"*, align 8
  %7 = alloca %"class.std::ios_base::Init", align 1
  store i8* %0, i8** %4, align 8
  store i8* %1, i8** %5, align 8
  store %"class.std::ios_base::Init"* %2, %"class.std::ios_base::Init"** %6, align 8
  %8 = load i8*, i8** %4, align 8
  %9 = load i8*, i8** %5, align 8
  %10 = load %"class.std::ios_base::Init"*, %"class.std::ios_base::Init"** %6, align 8
  %11 = call i8* @_ZNSs16_S_construct_auxIPcEES0_T_S1_RKSaIcESt12__false_type(i8* %8, i8* %9, %"class.std::ios_base::Init"* dereferenceable(1) %10)
  ret i8* %11
}

; Function Attrs: nounwind
declare void @_ZNSs12_Alloc_hiderC1EPcRKSaIcE(%"class.google::protobuf::internal::InternalMetadataWithArenaBase"*, i8*, %"class.std::ios_base::Init"* dereferenceable(1)) unnamed_addr #2

; Function Attrs: noinline optnone uwtable
define linkonce_odr i8* @_ZNSs16_S_construct_auxIPcEES0_T_S1_RKSaIcESt12__false_type(i8*, i8*, %"class.std::ios_base::Init"* dereferenceable(1)) #4 comdat align 2 {
  %4 = alloca %"class.std::ios_base::Init", align 1
  %5 = alloca i8*, align 8
  %6 = alloca i8*, align 8
  %7 = alloca %"class.std::ios_base::Init"*, align 8
  %8 = alloca %"class.std::ios_base::Init", align 1
  %9 = alloca %"class.std::ios_base::Init", align 1
  store i8* %0, i8** %5, align 8
  store i8* %1, i8** %6, align 8
  store %"class.std::ios_base::Init"* %2, %"class.std::ios_base::Init"** %7, align 8
  %10 = load i8*, i8** %5, align 8
  %11 = load i8*, i8** %6, align 8
  %12 = load %"class.std::ios_base::Init"*, %"class.std::ios_base::Init"** %7, align 8
  %13 = bitcast %"class.std::ios_base::Init"* %9 to %"class.std::ios_base::Init"*
  %14 = call i8* @_ZNSs12_S_constructIPcEES0_T_S1_RKSaIcESt20forward_iterator_tag(i8* %10, i8* %11, %"class.std::ios_base::Init"* dereferenceable(1) %12)
  ret i8* %14
}

; Function Attrs: noinline optnone uwtable
define linkonce_odr i8* @_ZNSs12_S_constructIPcEES0_T_S1_RKSaIcESt20forward_iterator_tag(i8*, i8*, %"class.std::ios_base::Init"* dereferenceable(1)) #4 comdat align 2 personality i8* bitcast (i32 (...)* @__gxx_personality_v0 to i8*) {
  %4 = alloca i8*, align 8
  %5 = alloca %"class.std::ios_base::Init", align 1
  %6 = alloca i8*, align 8
  %7 = alloca i8*, align 8
  %8 = alloca %"class.std::ios_base::Init"*, align 8
  %9 = alloca %"class.std::ios_base::Init", align 1
  %10 = alloca i1, align 1
  %11 = alloca i8*
  %12 = alloca i32
  %13 = alloca i64, align 8
  %14 = alloca %"struct.std::basic_string<char, std::char_traits<char>, std::allocator<char> >::_Rep"*, align 8
  store i8* %0, i8** %6, align 8
  store i8* %1, i8** %7, align 8
  store %"class.std::ios_base::Init"* %2, %"class.std::ios_base::Init"** %8, align 8
  %15 = load i8*, i8** %6, align 8
  %16 = load i8*, i8** %7, align 8
  %17 = icmp eq i8* %15, %16
  store i1 false, i1* %10, align 1
  br i1 %17, label %18, label %22

; <label>:18:                                     ; preds = %3
  %19 = load %"class.std::ios_base::Init"*, %"class.std::ios_base::Init"** %8, align 8
  call void @_ZNSaIcEC1Ev(%"class.std::ios_base::Init"* %9) #3
  store i1 true, i1* %10, align 1
  %20 = invoke zeroext i1 @_ZSteqIcEbRKSaIT_ES3_(%"class.std::ios_base::Init"* dereferenceable(1) %19, %"class.std::ios_base::Init"* dereferenceable(1) %9)
          to label %21 unwind label %30

; <label>:21:                                     ; preds = %18
  br label %22

; <label>:22:                                     ; preds = %21, %3
  %23 = phi i1 [ false, %3 ], [ %20, %21 ]
  %24 = load i1, i1* %10, align 1
  br i1 %24, label %25, label %26

; <label>:25:                                     ; preds = %22
  call void @_ZNSaIcED1Ev(%"class.std::ios_base::Init"* %9) #3
  br label %26

; <label>:26:                                     ; preds = %25, %22
  br i1 %23, label %27, label %37

; <label>:27:                                     ; preds = %26
  %28 = call dereferenceable(24) %"struct.std::basic_string<char, std::char_traits<char>, std::allocator<char> >::_Rep"* @_ZNSs12_S_empty_repEv() #3
  %29 = call i8* @_ZNSs4_Rep10_M_refdataEv(%"struct.std::basic_string<char, std::char_traits<char>, std::allocator<char> >::_Rep"* %28) #3
  store i8* %29, i8** %4, align 8
  br label %60

; <label>:30:                                     ; preds = %18
  %31 = landingpad { i8*, i32 }
          cleanup
  %32 = extractvalue { i8*, i32 } %31, 0
  store i8* %32, i8** %11, align 8
  %33 = extractvalue { i8*, i32 } %31, 1
  store i32 %33, i32* %12, align 4
  %34 = load i1, i1* %10, align 1
  br i1 %34, label %35, label %36

; <label>:35:                                     ; preds = %30
  call void @_ZNSaIcED1Ev(%"class.std::ios_base::Init"* %9) #3
  br label %36

; <label>:36:                                     ; preds = %35, %30
  br label %62

; <label>:37:                                     ; preds = %26
  %38 = load i8*, i8** %6, align 8
  %39 = call zeroext i1 @_ZN9__gnu_cxx17__is_null_pointerIcEEbPT_(i8* %38)
  br i1 %39, label %40, label %45

; <label>:40:                                     ; preds = %37
  %41 = load i8*, i8** %6, align 8
  %42 = load i8*, i8** %7, align 8
  %43 = icmp ne i8* %41, %42
  br i1 %43, label %44, label %45

; <label>:44:                                     ; preds = %40
  call void @_ZSt19__throw_logic_errorPKc(i8* getelementptr inbounds ([42 x i8], [42 x i8]* @.str.19, i32 0, i32 0)) #13
  unreachable

; <label>:45:                                     ; preds = %40, %37
  %46 = load i8*, i8** %6, align 8
  %47 = load i8*, i8** %7, align 8
  %48 = call i64 @_ZSt8distanceIPcENSt15iterator_traitsIT_E15difference_typeES2_S2_(i8* %46, i8* %47)
  store i64 %48, i64* %13, align 8
  %49 = load i64, i64* %13, align 8
  %50 = load %"class.std::ios_base::Init"*, %"class.std::ios_base::Init"** %8, align 8
  %51 = call %"struct.std::basic_string<char, std::char_traits<char>, std::allocator<char> >::_Rep"* @_ZNSs4_Rep9_S_createEmmRKSaIcE(i64 %49, i64 0, %"class.std::ios_base::Init"* dereferenceable(1) %50)
  store %"struct.std::basic_string<char, std::char_traits<char>, std::allocator<char> >::_Rep"* %51, %"struct.std::basic_string<char, std::char_traits<char>, std::allocator<char> >::_Rep"** %14, align 8
  %52 = load %"struct.std::basic_string<char, std::char_traits<char>, std::allocator<char> >::_Rep"*, %"struct.std::basic_string<char, std::char_traits<char>, std::allocator<char> >::_Rep"** %14, align 8
  %53 = call i8* @_ZNSs4_Rep10_M_refdataEv(%"struct.std::basic_string<char, std::char_traits<char>, std::allocator<char> >::_Rep"* %52) #3
  %54 = load i8*, i8** %6, align 8
  %55 = load i8*, i8** %7, align 8
  call void @_ZNSs13_S_copy_charsEPcS_S_(i8* %53, i8* %54, i8* %55) #3
  %56 = load %"struct.std::basic_string<char, std::char_traits<char>, std::allocator<char> >::_Rep"*, %"struct.std::basic_string<char, std::char_traits<char>, std::allocator<char> >::_Rep"** %14, align 8
  %57 = load i64, i64* %13, align 8
  call void @_ZNSs4_Rep26_M_set_length_and_sharableEm(%"struct.std::basic_string<char, std::char_traits<char>, std::allocator<char> >::_Rep"* %56, i64 %57) #3
  %58 = load %"struct.std::basic_string<char, std::char_traits<char>, std::allocator<char> >::_Rep"*, %"struct.std::basic_string<char, std::char_traits<char>, std::allocator<char> >::_Rep"** %14, align 8
  %59 = call i8* @_ZNSs4_Rep10_M_refdataEv(%"struct.std::basic_string<char, std::char_traits<char>, std::allocator<char> >::_Rep"* %58) #3
  store i8* %59, i8** %4, align 8
  br label %60

; <label>:60:                                     ; preds = %45, %27
  %61 = load i8*, i8** %4, align 8
  ret i8* %61

; <label>:62:                                     ; preds = %36
  %63 = load i8*, i8** %11, align 8
  %64 = load i32, i32* %12, align 4
  %65 = insertvalue { i8*, i32 } undef, i8* %63, 0
  %66 = insertvalue { i8*, i32 } %65, i32 %64, 1
  resume { i8*, i32 } %66
}

; Function Attrs: noinline nounwind optnone uwtable
define linkonce_odr zeroext i1 @_ZSteqIcEbRKSaIT_ES3_(%"class.std::ios_base::Init"* dereferenceable(1), %"class.std::ios_base::Init"* dereferenceable(1)) #5 comdat {
  %3 = alloca %"class.std::ios_base::Init"*, align 8
  %4 = alloca %"class.std::ios_base::Init"*, align 8
  store %"class.std::ios_base::Init"* %0, %"class.std::ios_base::Init"** %3, align 8
  store %"class.std::ios_base::Init"* %1, %"class.std::ios_base::Init"** %4, align 8
  ret i1 true
}

; Function Attrs: nounwind
declare dereferenceable(24) %"struct.std::basic_string<char, std::char_traits<char>, std::allocator<char> >::_Rep"* @_ZNSs12_S_empty_repEv() #2

; Function Attrs: nounwind
declare i8* @_ZNSs4_Rep10_M_refdataEv(%"struct.std::basic_string<char, std::char_traits<char>, std::allocator<char> >::_Rep"*) #2

; Function Attrs: noinline nounwind optnone uwtable
define linkonce_odr zeroext i1 @_ZN9__gnu_cxx17__is_null_pointerIcEEbPT_(i8*) #5 comdat {
  %2 = alloca i8*, align 8
  store i8* %0, i8** %2, align 8
  %3 = load i8*, i8** %2, align 8
  %4 = icmp eq i8* %3, null
  ret i1 %4
}

; Function Attrs: noreturn
declare void @_ZSt19__throw_logic_errorPKc(i8*) #6

; Function Attrs: noinline optnone uwtable
define linkonce_odr i64 @_ZSt8distanceIPcENSt15iterator_traitsIT_E15difference_typeES2_S2_(i8*, i8*) #4 comdat {
  %3 = alloca i8*, align 8
  %4 = alloca i8*, align 8
  %5 = alloca %"class.std::ios_base::Init", align 1
  %6 = alloca %"class.std::ios_base::Init", align 1
  store i8* %0, i8** %3, align 8
  store i8* %1, i8** %4, align 8
  %7 = load i8*, i8** %3, align 8
  %8 = load i8*, i8** %4, align 8
  call void @_ZSt19__iterator_categoryIPcENSt15iterator_traitsIT_E17iterator_categoryERKS2_(i8** dereferenceable(8) %3)
  %9 = call i64 @_ZSt10__distanceIPcENSt15iterator_traitsIT_E15difference_typeES2_S2_St26random_access_iterator_tag(i8* %7, i8* %8)
  ret i64 %9
}

declare %"struct.std::basic_string<char, std::char_traits<char>, std::allocator<char> >::_Rep"* @_ZNSs4_Rep9_S_createEmmRKSaIcE(i64, i64, %"class.std::ios_base::Init"* dereferenceable(1)) #1

; Function Attrs: nounwind
declare void @_ZNSs13_S_copy_charsEPcS_S_(i8*, i8*, i8*) #2

; Function Attrs: nounwind
declare void @_ZNSs4_Rep26_M_set_length_and_sharableEm(%"struct.std::basic_string<char, std::char_traits<char>, std::allocator<char> >::_Rep"*, i64) #2

; Function Attrs: noinline nounwind optnone uwtable
define linkonce_odr void @_ZSt19__iterator_categoryIPcENSt15iterator_traitsIT_E17iterator_categoryERKS2_(i8** dereferenceable(8)) #5 comdat {
  %2 = alloca %"class.std::ios_base::Init", align 1
  %3 = alloca i8**, align 8
  store i8** %0, i8*** %3, align 8
  ret void
}

; Function Attrs: noinline nounwind optnone uwtable
define linkonce_odr i64 @_ZSt10__distanceIPcENSt15iterator_traitsIT_E15difference_typeES2_S2_St26random_access_iterator_tag(i8*, i8*) #5 comdat {
  %3 = alloca %"class.std::ios_base::Init", align 1
  %4 = alloca i8*, align 8
  %5 = alloca i8*, align 8
  store i8* %0, i8** %4, align 8
  store i8* %1, i8** %5, align 8
  %6 = load i8*, i8** %5, align 8
  %7 = load i8*, i8** %4, align 8
  %8 = ptrtoint i8* %6 to i64
  %9 = ptrtoint i8* %7 to i64
  %10 = sub i64 %8, %9
  ret i64 %10
}

; Function Attrs: noinline optnone uwtable
define void @_Z12TestFooAdd01RKN6sample3FooES2_(%"class.sample::Foo"* noalias sret, %"class.sample::Foo"* dereferenceable(40), %"class.sample::Foo"* dereferenceable(40)) #4 personality i8* bitcast (i32 (...)* @__gxx_personality_v0 to i8*) {
  %4 = alloca %"class.sample::Foo"*, align 8
  %5 = alloca %"class.sample::Foo"*, align 8
  %6 = alloca %"class.emp::Integer", align 8
  %7 = alloca i32, align 4
  %8 = alloca %"class.emp::Integer", align 8
  %9 = alloca i32, align 4
  %10 = alloca i8*
  %11 = alloca i32
  %12 = alloca i32, align 4
  %13 = alloca %"class.emp::Integer", align 8
  %14 = alloca i1, align 1
  %15 = alloca %"class.google::protobuf::internal::InternalMetadataWithArena", align 8
  %16 = alloca %"class.google::protobuf::internal::InternalMetadataWithArena", align 8
  %17 = alloca %"class.google::protobuf::internal::InternalMetadataWithArena", align 8
  %18 = alloca %"class.google::protobuf::internal::InternalMetadataWithArena", align 8
  %19 = alloca %"class.google::protobuf::internal::InternalMetadataWithArena", align 8
  %20 = alloca %"class.google::protobuf::internal::InternalMetadataWithArena", align 8
  %21 = alloca %"class.google::protobuf::internal::InternalMetadataWithArena", align 8
  %22 = alloca %"class.google::protobuf::internal::InternalMetadataWithArena", align 8
  store %"class.sample::Foo"* %1, %"class.sample::Foo"** %4, align 8
  store %"class.sample::Foo"* %2, %"class.sample::Foo"** %5, align 8
  %23 = load %"class.sample::Foo"*, %"class.sample::Foo"** %4, align 8
  %24 = call i32 @_ZNK6sample3Foo3i32Ev(%"class.sample::Foo"* %23)
  %25 = load %"class.sample::Foo"*, %"class.sample::Foo"** %5, align 8
  %26 = call i32 @_ZNK6sample3Foo3i32Ev(%"class.sample::Foo"* %25)
  %27 = call i32 (i8*, ...) @printf(i8* getelementptr inbounds ([22 x i8], [22 x i8]* @.str, i32 0, i32 0), i8* getelementptr inbounds ([13 x i8], [13 x i8]* @__FUNCTION__._Z12TestFooAdd01RKN6sample3FooES2_, i32 0, i32 0), i32 %24, i32 %26)
  %28 = load %"class.sample::Foo"*, %"class.sample::Foo"** %4, align 8
  %29 = call i32 @_ZNK6sample3Foo3i32Ev(%"class.sample::Foo"* %28)
  store i32 %29, i32* %7, align 4
  call void @_ZN3emp7IntegerC1ERKii(%"class.emp::Integer"* %6, i32* dereferenceable(4) %7, i32 1)
  %30 = load %"class.sample::Foo"*, %"class.sample::Foo"** %5, align 8
  %31 = invoke i32 @_ZNK6sample3Foo3i32Ev(%"class.sample::Foo"* %30)
          to label %32 unwind label %62

; <label>:32:                                     ; preds = %3
  store i32 %31, i32* %9, align 4
  invoke void @_ZN3emp7IntegerC1ERKii(%"class.emp::Integer"* %8, i32* dereferenceable(4) %9, i32 2)
          to label %33 unwind label %62

; <label>:33:                                     ; preds = %32
  invoke void @_ZNK3emp7IntegerplERKS0_(%"class.emp::Integer"* sret %13, %"class.emp::Integer"* %6, %"class.emp::Integer"* dereferenceable(16) %8)
          to label %34 unwind label %66

; <label>:34:                                     ; preds = %33
  %35 = invoke i64 @_ZNK3emp7Integer10reveal_intEi(%"class.emp::Integer"* %13, i32 0)
          to label %36 unwind label %70

; <label>:36:                                     ; preds = %34
  %37 = trunc i64 %35 to i32
  call void @_ZN3emp7IntegerD1Ev(%"class.emp::Integer"* %13) #3
  store i32 %37, i32* %12, align 4
  %38 = load i32, i32* %12, align 4
  %39 = invoke i32 (i8*, ...) @printf(i8* getelementptr inbounds ([27 x i8], [27 x i8]* @.str.5, i32 0, i32 0), i8* getelementptr inbounds ([13 x i8], [13 x i8]* @__FUNCTION__._Z12TestFooAdd01RKN6sample3FooES2_, i32 0, i32 0), i32 %38)
          to label %40 unwind label %66

; <label>:40:                                     ; preds = %36
  store i1 false, i1* %14, align 1
  invoke void @_ZN6sample3FooC1Ev(%"class.sample::Foo"* %0)
          to label %41 unwind label %66

; <label>:41:                                     ; preds = %40
  %42 = load i32, i32* %12, align 4
  invoke void @_ZN6sample3Foo7set_i32Ei(%"class.sample::Foo"* %0, i32 %42)
          to label %43 unwind label %74

; <label>:43:                                     ; preds = %41
  invoke void @_ZN6sample3Foo5set_fEf(%"class.sample::Foo"* %0, float 1.110000e+02)
          to label %44 unwind label %74

; <label>:44:                                     ; preds = %43
  %45 = load %"class.sample::Foo"*, %"class.sample::Foo"** %4, align 8
  %46 = invoke i32 @_ZNK6sample3Foo3i32Ev(%"class.sample::Foo"* %45)
          to label %47 unwind label %74

; <label>:47:                                     ; preds = %44
  invoke void @_ZSt9to_stringi(%"class.google::protobuf::internal::InternalMetadataWithArena"* sret %20, i32 %46)
          to label %48 unwind label %74

; <label>:48:                                     ; preds = %47
  invoke void @_ZStplIcSt11char_traitsIcESaIcEESbIT_T0_T1_EPKS3_OS6_(%"class.google::protobuf::internal::InternalMetadataWithArena"* sret %19, i8* getelementptr inbounds ([21 x i8], [21 x i8]* @.str.11, i32 0, i32 0), %"class.google::protobuf::internal::InternalMetadataWithArena"* dereferenceable(8) %20)
          to label %49 unwind label %78

; <label>:49:                                     ; preds = %48
  invoke void @_ZStplIcSt11char_traitsIcESaIcEESbIT_T0_T1_EOS6_PKS3_(%"class.google::protobuf::internal::InternalMetadataWithArena"* sret %18, %"class.google::protobuf::internal::InternalMetadataWithArena"* dereferenceable(8) %19, i8* getelementptr inbounds ([2 x i8], [2 x i8]* @.str.12, i32 0, i32 0))
          to label %50 unwind label %82

; <label>:50:                                     ; preds = %49
  %51 = load %"class.sample::Foo"*, %"class.sample::Foo"** %5, align 8
  %52 = invoke i32 @_ZNK6sample3Foo3i32Ev(%"class.sample::Foo"* %51)
          to label %53 unwind label %86

; <label>:53:                                     ; preds = %50
  invoke void @_ZSt9to_stringi(%"class.google::protobuf::internal::InternalMetadataWithArena"* sret %21, i32 %52)
          to label %54 unwind label %86

; <label>:54:                                     ; preds = %53
  invoke void @_ZStplIcSt11char_traitsIcESaIcEESbIT_T0_T1_EOS6_S7_(%"class.google::protobuf::internal::InternalMetadataWithArena"* sret %17, %"class.google::protobuf::internal::InternalMetadataWithArena"* dereferenceable(8) %18, %"class.google::protobuf::internal::InternalMetadataWithArena"* dereferenceable(8) %21)
          to label %55 unwind label %90

; <label>:55:                                     ; preds = %54
  invoke void @_ZStplIcSt11char_traitsIcESaIcEESbIT_T0_T1_EOS6_PKS3_(%"class.google::protobuf::internal::InternalMetadataWithArena"* sret %16, %"class.google::protobuf::internal::InternalMetadataWithArena"* dereferenceable(8) %17, i8* getelementptr inbounds ([2 x i8], [2 x i8]* @.str.13, i32 0, i32 0))
          to label %56 unwind label %94

; <label>:56:                                     ; preds = %55
  %57 = load i32, i32* %12, align 4
  invoke void @_ZSt9to_stringi(%"class.google::protobuf::internal::InternalMetadataWithArena"* sret %22, i32 %57)
          to label %58 unwind label %98

; <label>:58:                                     ; preds = %56
  invoke void @_ZStplIcSt11char_traitsIcESaIcEESbIT_T0_T1_EOS6_S7_(%"class.google::protobuf::internal::InternalMetadataWithArena"* sret %15, %"class.google::protobuf::internal::InternalMetadataWithArena"* dereferenceable(8) %16, %"class.google::protobuf::internal::InternalMetadataWithArena"* dereferenceable(8) %22)
          to label %59 unwind label %102

; <label>:59:                                     ; preds = %58
  invoke void @_ZN6sample3Foo5set_sEOSs(%"class.sample::Foo"* %0, %"class.google::protobuf::internal::InternalMetadataWithArena"* dereferenceable(8) %15)
          to label %60 unwind label %106

; <label>:60:                                     ; preds = %59
  call void @_ZNSsD1Ev(%"class.google::protobuf::internal::InternalMetadataWithArena"* %15) #3
  call void @_ZNSsD1Ev(%"class.google::protobuf::internal::InternalMetadataWithArena"* %22) #3
  call void @_ZNSsD1Ev(%"class.google::protobuf::internal::InternalMetadataWithArena"* %16) #3
  call void @_ZNSsD1Ev(%"class.google::protobuf::internal::InternalMetadataWithArena"* %17) #3
  call void @_ZNSsD1Ev(%"class.google::protobuf::internal::InternalMetadataWithArena"* %21) #3
  call void @_ZNSsD1Ev(%"class.google::protobuf::internal::InternalMetadataWithArena"* %18) #3
  call void @_ZNSsD1Ev(%"class.google::protobuf::internal::InternalMetadataWithArena"* %19) #3
  call void @_ZNSsD1Ev(%"class.google::protobuf::internal::InternalMetadataWithArena"* %20) #3
  store i1 true, i1* %14, align 1
  %61 = load i1, i1* %14, align 1
  br i1 %61, label %118, label %117

; <label>:62:                                     ; preds = %32, %3
  %63 = landingpad { i8*, i32 }
          cleanup
  %64 = extractvalue { i8*, i32 } %63, 0
  store i8* %64, i8** %10, align 8
  %65 = extractvalue { i8*, i32 } %63, 1
  store i32 %65, i32* %11, align 4
  br label %121

; <label>:66:                                     ; preds = %40, %36, %33
  %67 = landingpad { i8*, i32 }
          cleanup
  %68 = extractvalue { i8*, i32 } %67, 0
  store i8* %68, i8** %10, align 8
  %69 = extractvalue { i8*, i32 } %67, 1
  store i32 %69, i32* %11, align 4
  br label %120

; <label>:70:                                     ; preds = %34
  %71 = landingpad { i8*, i32 }
          cleanup
  %72 = extractvalue { i8*, i32 } %71, 0
  store i8* %72, i8** %10, align 8
  %73 = extractvalue { i8*, i32 } %71, 1
  store i32 %73, i32* %11, align 4
  call void @_ZN3emp7IntegerD1Ev(%"class.emp::Integer"* %13) #3
  br label %120

; <label>:74:                                     ; preds = %47, %44, %43, %41
  %75 = landingpad { i8*, i32 }
          cleanup
  %76 = extractvalue { i8*, i32 } %75, 0
  store i8* %76, i8** %10, align 8
  %77 = extractvalue { i8*, i32 } %75, 1
  store i32 %77, i32* %11, align 4
  br label %119

; <label>:78:                                     ; preds = %48
  %79 = landingpad { i8*, i32 }
          cleanup
  %80 = extractvalue { i8*, i32 } %79, 0
  store i8* %80, i8** %10, align 8
  %81 = extractvalue { i8*, i32 } %79, 1
  store i32 %81, i32* %11, align 4
  br label %116

; <label>:82:                                     ; preds = %49
  %83 = landingpad { i8*, i32 }
          cleanup
  %84 = extractvalue { i8*, i32 } %83, 0
  store i8* %84, i8** %10, align 8
  %85 = extractvalue { i8*, i32 } %83, 1
  store i32 %85, i32* %11, align 4
  br label %115

; <label>:86:                                     ; preds = %53, %50
  %87 = landingpad { i8*, i32 }
          cleanup
  %88 = extractvalue { i8*, i32 } %87, 0
  store i8* %88, i8** %10, align 8
  %89 = extractvalue { i8*, i32 } %87, 1
  store i32 %89, i32* %11, align 4
  br label %114

; <label>:90:                                     ; preds = %54
  %91 = landingpad { i8*, i32 }
          cleanup
  %92 = extractvalue { i8*, i32 } %91, 0
  store i8* %92, i8** %10, align 8
  %93 = extractvalue { i8*, i32 } %91, 1
  store i32 %93, i32* %11, align 4
  br label %113

; <label>:94:                                     ; preds = %55
  %95 = landingpad { i8*, i32 }
          cleanup
  %96 = extractvalue { i8*, i32 } %95, 0
  store i8* %96, i8** %10, align 8
  %97 = extractvalue { i8*, i32 } %95, 1
  store i32 %97, i32* %11, align 4
  br label %112

; <label>:98:                                     ; preds = %56
  %99 = landingpad { i8*, i32 }
          cleanup
  %100 = extractvalue { i8*, i32 } %99, 0
  store i8* %100, i8** %10, align 8
  %101 = extractvalue { i8*, i32 } %99, 1
  store i32 %101, i32* %11, align 4
  br label %111

; <label>:102:                                    ; preds = %58
  %103 = landingpad { i8*, i32 }
          cleanup
  %104 = extractvalue { i8*, i32 } %103, 0
  store i8* %104, i8** %10, align 8
  %105 = extractvalue { i8*, i32 } %103, 1
  store i32 %105, i32* %11, align 4
  br label %110

; <label>:106:                                    ; preds = %59
  %107 = landingpad { i8*, i32 }
          cleanup
  %108 = extractvalue { i8*, i32 } %107, 0
  store i8* %108, i8** %10, align 8
  %109 = extractvalue { i8*, i32 } %107, 1
  store i32 %109, i32* %11, align 4
  call void @_ZNSsD1Ev(%"class.google::protobuf::internal::InternalMetadataWithArena"* %15) #3
  br label %110

; <label>:110:                                    ; preds = %106, %102
  call void @_ZNSsD1Ev(%"class.google::protobuf::internal::InternalMetadataWithArena"* %22) #3
  br label %111

; <label>:111:                                    ; preds = %110, %98
  call void @_ZNSsD1Ev(%"class.google::protobuf::internal::InternalMetadataWithArena"* %16) #3
  br label %112

; <label>:112:                                    ; preds = %111, %94
  call void @_ZNSsD1Ev(%"class.google::protobuf::internal::InternalMetadataWithArena"* %17) #3
  br label %113

; <label>:113:                                    ; preds = %112, %90
  call void @_ZNSsD1Ev(%"class.google::protobuf::internal::InternalMetadataWithArena"* %21) #3
  br label %114

; <label>:114:                                    ; preds = %113, %86
  call void @_ZNSsD1Ev(%"class.google::protobuf::internal::InternalMetadataWithArena"* %18) #3
  br label %115

; <label>:115:                                    ; preds = %114, %82
  call void @_ZNSsD1Ev(%"class.google::protobuf::internal::InternalMetadataWithArena"* %19) #3
  br label %116

; <label>:116:                                    ; preds = %115, %78
  call void @_ZNSsD1Ev(%"class.google::protobuf::internal::InternalMetadataWithArena"* %20) #3
  br label %119

; <label>:117:                                    ; preds = %60
  call void @_ZN6sample3FooD1Ev(%"class.sample::Foo"* %0) #3
  br label %118

; <label>:118:                                    ; preds = %117, %60
  call void @_ZN3emp7IntegerD1Ev(%"class.emp::Integer"* %8) #3
  call void @_ZN3emp7IntegerD1Ev(%"class.emp::Integer"* %6) #3
  ret void

; <label>:119:                                    ; preds = %116, %74
  call void @_ZN6sample3FooD1Ev(%"class.sample::Foo"* %0) #3
  br label %120

; <label>:120:                                    ; preds = %119, %70, %66
  call void @_ZN3emp7IntegerD1Ev(%"class.emp::Integer"* %8) #3
  br label %121

; <label>:121:                                    ; preds = %120, %62
  call void @_ZN3emp7IntegerD1Ev(%"class.emp::Integer"* %6) #3
  br label %122

; <label>:122:                                    ; preds = %121
  %123 = load i8*, i8** %10, align 8
  %124 = load i32, i32* %11, align 4
  %125 = insertvalue { i8*, i32 } undef, i8* %123, 0
  %126 = insertvalue { i8*, i32 } %125, i32 %124, 1
  resume { i8*, i32 } %126
}

; Function Attrs: noinline nounwind optnone uwtable
define linkonce_odr i32 @_ZNK6sample3Foo3i32Ev(%"class.sample::Foo"*) #5 comdat align 2 {
  %2 = alloca %"class.sample::Foo"*, align 8
  store %"class.sample::Foo"* %0, %"class.sample::Foo"** %2, align 8
  %3 = load %"class.sample::Foo"*, %"class.sample::Foo"** %2, align 8
  %4 = getelementptr inbounds %"class.sample::Foo", %"class.sample::Foo"* %3, i32 0, i32 3
  %5 = load i32, i32* %4, align 8
  ret i32 %5
}

; Function Attrs: noinline nounwind optnone uwtable
define linkonce_odr void @_ZN6sample3Foo7set_i32Ei(%"class.sample::Foo"*, i32) #5 comdat align 2 {
  %3 = alloca %"class.sample::Foo"*, align 8
  %4 = alloca i32, align 4
  store %"class.sample::Foo"* %0, %"class.sample::Foo"** %3, align 8
  store i32 %1, i32* %4, align 4
  %5 = load %"class.sample::Foo"*, %"class.sample::Foo"** %3, align 8
  %6 = load i32, i32* %4, align 4
  %7 = getelementptr inbounds %"class.sample::Foo", %"class.sample::Foo"* %5, i32 0, i32 3
  store i32 %6, i32* %7, align 8
  ret void
}

; Function Attrs: noinline nounwind optnone uwtable
define linkonce_odr void @_ZN6sample3Foo5set_fEf(%"class.sample::Foo"*, float) #5 comdat align 2 {
  %3 = alloca %"class.sample::Foo"*, align 8
  %4 = alloca float, align 4
  store %"class.sample::Foo"* %0, %"class.sample::Foo"** %3, align 8
  store float %1, float* %4, align 4
  %5 = load %"class.sample::Foo"*, %"class.sample::Foo"** %3, align 8
  %6 = load float, float* %4, align 4
  %7 = getelementptr inbounds %"class.sample::Foo", %"class.sample::Foo"* %5, i32 0, i32 4
  store float %6, float* %7, align 4
  ret void
}

; Function Attrs: noinline optnone uwtable
define linkonce_odr void @_ZStplIcSt11char_traitsIcESaIcEESbIT_T0_T1_EPKS3_OS6_(%"class.google::protobuf::internal::InternalMetadataWithArena"* noalias sret, i8*, %"class.google::protobuf::internal::InternalMetadataWithArena"* dereferenceable(8)) #4 comdat {
  %4 = alloca i8*, align 8
  %5 = alloca %"class.google::protobuf::internal::InternalMetadataWithArena"*, align 8
  store i8* %1, i8** %4, align 8
  store %"class.google::protobuf::internal::InternalMetadataWithArena"* %2, %"class.google::protobuf::internal::InternalMetadataWithArena"** %5, align 8
  %6 = load %"class.google::protobuf::internal::InternalMetadataWithArena"*, %"class.google::protobuf::internal::InternalMetadataWithArena"** %5, align 8
  %7 = load i8*, i8** %4, align 8
  %8 = call dereferenceable(8) %"class.google::protobuf::internal::InternalMetadataWithArena"* @_ZNSs6insertEmPKc(%"class.google::protobuf::internal::InternalMetadataWithArena"* %6, i64 0, i8* %7)
  %9 = call dereferenceable(8) %"class.google::protobuf::internal::InternalMetadataWithArena"* @_ZSt4moveIRSsEONSt16remove_referenceIT_E4typeEOS2_(%"class.google::protobuf::internal::InternalMetadataWithArena"* dereferenceable(8) %8) #3
  call void @_ZNSsC1EOSs(%"class.google::protobuf::internal::InternalMetadataWithArena"* %0, %"class.google::protobuf::internal::InternalMetadataWithArena"* dereferenceable(8) %9) #3
  ret void
}

; Function Attrs: noinline optnone uwtable
define linkonce_odr void @_ZStplIcSt11char_traitsIcESaIcEESbIT_T0_T1_EOS6_PKS3_(%"class.google::protobuf::internal::InternalMetadataWithArena"* noalias sret, %"class.google::protobuf::internal::InternalMetadataWithArena"* dereferenceable(8), i8*) #4 comdat {
  %4 = alloca %"class.google::protobuf::internal::InternalMetadataWithArena"*, align 8
  %5 = alloca i8*, align 8
  store %"class.google::protobuf::internal::InternalMetadataWithArena"* %1, %"class.google::protobuf::internal::InternalMetadataWithArena"** %4, align 8
  store i8* %2, i8** %5, align 8
  %6 = load %"class.google::protobuf::internal::InternalMetadataWithArena"*, %"class.google::protobuf::internal::InternalMetadataWithArena"** %4, align 8
  %7 = load i8*, i8** %5, align 8
  %8 = call dereferenceable(8) %"class.google::protobuf::internal::InternalMetadataWithArena"* @_ZNSs6appendEPKc(%"class.google::protobuf::internal::InternalMetadataWithArena"* %6, i8* %7)
  %9 = call dereferenceable(8) %"class.google::protobuf::internal::InternalMetadataWithArena"* @_ZSt4moveIRSsEONSt16remove_referenceIT_E4typeEOS2_(%"class.google::protobuf::internal::InternalMetadataWithArena"* dereferenceable(8) %8) #3
  call void @_ZNSsC1EOSs(%"class.google::protobuf::internal::InternalMetadataWithArena"* %0, %"class.google::protobuf::internal::InternalMetadataWithArena"* dereferenceable(8) %9) #3
  ret void
}

; Function Attrs: noinline optnone uwtable
define linkonce_odr void @_ZStplIcSt11char_traitsIcESaIcEESbIT_T0_T1_EOS6_S7_(%"class.google::protobuf::internal::InternalMetadataWithArena"* noalias sret, %"class.google::protobuf::internal::InternalMetadataWithArena"* dereferenceable(8), %"class.google::protobuf::internal::InternalMetadataWithArena"* dereferenceable(8)) #4 comdat {
  %4 = alloca %"class.google::protobuf::internal::InternalMetadataWithArena"*, align 8
  %5 = alloca %"class.google::protobuf::internal::InternalMetadataWithArena"*, align 8
  %6 = alloca i64, align 8
  %7 = alloca i8, align 1
  store %"class.google::protobuf::internal::InternalMetadataWithArena"* %1, %"class.google::protobuf::internal::InternalMetadataWithArena"** %4, align 8
  store %"class.google::protobuf::internal::InternalMetadataWithArena"* %2, %"class.google::protobuf::internal::InternalMetadataWithArena"** %5, align 8
  %8 = load %"class.google::protobuf::internal::InternalMetadataWithArena"*, %"class.google::protobuf::internal::InternalMetadataWithArena"** %4, align 8
  %9 = call i64 @_ZNKSs4sizeEv(%"class.google::protobuf::internal::InternalMetadataWithArena"* %8) #3
  %10 = load %"class.google::protobuf::internal::InternalMetadataWithArena"*, %"class.google::protobuf::internal::InternalMetadataWithArena"** %5, align 8
  %11 = call i64 @_ZNKSs4sizeEv(%"class.google::protobuf::internal::InternalMetadataWithArena"* %10) #3
  %12 = add i64 %9, %11
  store i64 %12, i64* %6, align 8
  %13 = load i64, i64* %6, align 8
  %14 = load %"class.google::protobuf::internal::InternalMetadataWithArena"*, %"class.google::protobuf::internal::InternalMetadataWithArena"** %4, align 8
  %15 = call i64 @_ZNKSs8capacityEv(%"class.google::protobuf::internal::InternalMetadataWithArena"* %14) #3
  %16 = icmp ugt i64 %13, %15
  br i1 %16, label %17, label %22

; <label>:17:                                     ; preds = %3
  %18 = load i64, i64* %6, align 8
  %19 = load %"class.google::protobuf::internal::InternalMetadataWithArena"*, %"class.google::protobuf::internal::InternalMetadataWithArena"** %5, align 8
  %20 = call i64 @_ZNKSs8capacityEv(%"class.google::protobuf::internal::InternalMetadataWithArena"* %19) #3
  %21 = icmp ule i64 %18, %20
  br label %22

; <label>:22:                                     ; preds = %17, %3
  %23 = phi i1 [ false, %3 ], [ %21, %17 ]
  %24 = zext i1 %23 to i8
  store i8 %24, i8* %7, align 1
  %25 = load i8, i8* %7, align 1
  %26 = trunc i8 %25 to i1
  br i1 %26, label %27, label %32

; <label>:27:                                     ; preds = %22
  %28 = load %"class.google::protobuf::internal::InternalMetadataWithArena"*, %"class.google::protobuf::internal::InternalMetadataWithArena"** %5, align 8
  %29 = load %"class.google::protobuf::internal::InternalMetadataWithArena"*, %"class.google::protobuf::internal::InternalMetadataWithArena"** %4, align 8
  %30 = call dereferenceable(8) %"class.google::protobuf::internal::InternalMetadataWithArena"* @_ZNSs6insertEmRKSs(%"class.google::protobuf::internal::InternalMetadataWithArena"* %28, i64 0, %"class.google::protobuf::internal::InternalMetadataWithArena"* dereferenceable(8) %29)
  %31 = call dereferenceable(8) %"class.google::protobuf::internal::InternalMetadataWithArena"* @_ZSt4moveIRSsEONSt16remove_referenceIT_E4typeEOS2_(%"class.google::protobuf::internal::InternalMetadataWithArena"* dereferenceable(8) %30) #3
  br label %37

; <label>:32:                                     ; preds = %22
  %33 = load %"class.google::protobuf::internal::InternalMetadataWithArena"*, %"class.google::protobuf::internal::InternalMetadataWithArena"** %4, align 8
  %34 = load %"class.google::protobuf::internal::InternalMetadataWithArena"*, %"class.google::protobuf::internal::InternalMetadataWithArena"** %5, align 8
  %35 = call dereferenceable(8) %"class.google::protobuf::internal::InternalMetadataWithArena"* @_ZNSs6appendERKSs(%"class.google::protobuf::internal::InternalMetadataWithArena"* %33, %"class.google::protobuf::internal::InternalMetadataWithArena"* dereferenceable(8) %34)
  %36 = call dereferenceable(8) %"class.google::protobuf::internal::InternalMetadataWithArena"* @_ZSt4moveIRSsEONSt16remove_referenceIT_E4typeEOS2_(%"class.google::protobuf::internal::InternalMetadataWithArena"* dereferenceable(8) %35) #3
  br label %37

; <label>:37:                                     ; preds = %32, %27
  %38 = phi %"class.google::protobuf::internal::InternalMetadataWithArena"* [ %31, %27 ], [ %36, %32 ]
  call void @_ZNSsC1EOSs(%"class.google::protobuf::internal::InternalMetadataWithArena"* %0, %"class.google::protobuf::internal::InternalMetadataWithArena"* dereferenceable(8) %38) #3
  ret void
}

; Function Attrs: noinline optnone uwtable
define linkonce_odr void @_ZN6sample3Foo5set_sEOSs(%"class.sample::Foo"*, %"class.google::protobuf::internal::InternalMetadataWithArena"* dereferenceable(8)) #4 comdat align 2 {
  %3 = alloca %"class.sample::Foo"*, align 8
  %4 = alloca %"class.google::protobuf::internal::InternalMetadataWithArena"*, align 8
  store %"class.sample::Foo"* %0, %"class.sample::Foo"** %3, align 8
  store %"class.google::protobuf::internal::InternalMetadataWithArena"* %1, %"class.google::protobuf::internal::InternalMetadataWithArena"** %4, align 8
  %5 = load %"class.sample::Foo"*, %"class.sample::Foo"** %3, align 8
  %6 = getelementptr inbounds %"class.sample::Foo", %"class.sample::Foo"* %5, i32 0, i32 2
  %7 = call dereferenceable(8) %"class.google::protobuf::internal::InternalMetadataWithArena"* @_ZN6google8protobuf8internal27GetEmptyStringAlreadyInitedEv()
  %8 = load %"class.google::protobuf::internal::InternalMetadataWithArena"*, %"class.google::protobuf::internal::InternalMetadataWithArena"** %4, align 8
  %9 = call dereferenceable(8) %"class.google::protobuf::internal::InternalMetadataWithArena"* @_ZSt4moveIRSsEONSt16remove_referenceIT_E4typeEOS2_(%"class.google::protobuf::internal::InternalMetadataWithArena"* dereferenceable(8) %8) #3
  call void @_ZN6google8protobuf8internal14ArenaStringPtr10SetNoArenaEPKSsOSs(%"struct.google::protobuf::internal::ArenaStringPtr"* %6, %"class.google::protobuf::internal::InternalMetadataWithArena"* %7, %"class.google::protobuf::internal::InternalMetadataWithArena"* dereferenceable(8) %9)
  ret void
}

; Function Attrs: nounwind
declare void @_ZNSsD1Ev(%"class.google::protobuf::internal::InternalMetadataWithArena"*) unnamed_addr #2

; Function Attrs: noinline optnone uwtable
define linkonce_odr dereferenceable(8) %"class.google::protobuf::internal::InternalMetadataWithArena"* @_ZN6google8protobuf8internal27GetEmptyStringAlreadyInitedEv() #4 comdat {
  %1 = call dereferenceable(8) %"class.google::protobuf::internal::InternalMetadataWithArena"* @_ZNK6google8protobuf8internal21ExplicitlyConstructedISsE3getEv(%"class.google::protobuf::internal::ExplicitlyConstructed"* @_ZN6google8protobuf8internal26fixed_address_empty_stringE)
  ret %"class.google::protobuf::internal::InternalMetadataWithArena"* %1
}

; Function Attrs: noinline nounwind optnone uwtable
define linkonce_odr dereferenceable(8) %"class.google::protobuf::internal::InternalMetadataWithArena"* @_ZSt4moveIRSsEONSt16remove_referenceIT_E4typeEOS2_(%"class.google::protobuf::internal::InternalMetadataWithArena"* dereferenceable(8)) #5 comdat {
  %2 = alloca %"class.google::protobuf::internal::InternalMetadataWithArena"*, align 8
  store %"class.google::protobuf::internal::InternalMetadataWithArena"* %0, %"class.google::protobuf::internal::InternalMetadataWithArena"** %2, align 8
  %3 = load %"class.google::protobuf::internal::InternalMetadataWithArena"*, %"class.google::protobuf::internal::InternalMetadataWithArena"** %2, align 8
  ret %"class.google::protobuf::internal::InternalMetadataWithArena"* %3
}

; Function Attrs: noinline optnone uwtable
define linkonce_odr void @_ZN6google8protobuf8internal14ArenaStringPtr10SetNoArenaEPKSsOSs(%"struct.google::protobuf::internal::ArenaStringPtr"*, %"class.google::protobuf::internal::InternalMetadataWithArena"*, %"class.google::protobuf::internal::InternalMetadataWithArena"* dereferenceable(8)) #4 comdat align 2 {
  %4 = alloca %"struct.google::protobuf::internal::ArenaStringPtr"*, align 8
  %5 = alloca %"class.google::protobuf::internal::InternalMetadataWithArena"*, align 8
  %6 = alloca %"class.google::protobuf::internal::InternalMetadataWithArena"*, align 8
  store %"struct.google::protobuf::internal::ArenaStringPtr"* %0, %"struct.google::protobuf::internal::ArenaStringPtr"** %4, align 8
  store %"class.google::protobuf::internal::InternalMetadataWithArena"* %1, %"class.google::protobuf::internal::InternalMetadataWithArena"** %5, align 8
  store %"class.google::protobuf::internal::InternalMetadataWithArena"* %2, %"class.google::protobuf::internal::InternalMetadataWithArena"** %6, align 8
  %7 = load %"struct.google::protobuf::internal::ArenaStringPtr"*, %"struct.google::protobuf::internal::ArenaStringPtr"** %4, align 8
  %8 = load %"class.google::protobuf::internal::InternalMetadataWithArena"*, %"class.google::protobuf::internal::InternalMetadataWithArena"** %5, align 8
  %9 = call zeroext i1 @_ZNK6google8protobuf8internal14ArenaStringPtr9IsDefaultEPKSs(%"struct.google::protobuf::internal::ArenaStringPtr"* %7, %"class.google::protobuf::internal::InternalMetadataWithArena"* %8)
  br i1 %9, label %10, label %16

; <label>:10:                                     ; preds = %3
  %11 = call i8* @_Znwm(i64 8) #14
  %12 = bitcast i8* %11 to %"class.google::protobuf::internal::InternalMetadataWithArena"*
  %13 = load %"class.google::protobuf::internal::InternalMetadataWithArena"*, %"class.google::protobuf::internal::InternalMetadataWithArena"** %6, align 8
  %14 = call dereferenceable(8) %"class.google::protobuf::internal::InternalMetadataWithArena"* @_ZSt4moveIRSsEONSt16remove_referenceIT_E4typeEOS2_(%"class.google::protobuf::internal::InternalMetadataWithArena"* dereferenceable(8) %13) #3
  call void @_ZNSsC1EOSs(%"class.google::protobuf::internal::InternalMetadataWithArena"* %12, %"class.google::protobuf::internal::InternalMetadataWithArena"* dereferenceable(8) %14) #3
  %15 = getelementptr inbounds %"struct.google::protobuf::internal::ArenaStringPtr", %"struct.google::protobuf::internal::ArenaStringPtr"* %7, i32 0, i32 0
  store %"class.google::protobuf::internal::InternalMetadataWithArena"* %12, %"class.google::protobuf::internal::InternalMetadataWithArena"** %15, align 8
  br label %22

; <label>:16:                                     ; preds = %3
  %17 = load %"class.google::protobuf::internal::InternalMetadataWithArena"*, %"class.google::protobuf::internal::InternalMetadataWithArena"** %6, align 8
  %18 = call dereferenceable(8) %"class.google::protobuf::internal::InternalMetadataWithArena"* @_ZSt4moveIRSsEONSt16remove_referenceIT_E4typeEOS2_(%"class.google::protobuf::internal::InternalMetadataWithArena"* dereferenceable(8) %17) #3
  %19 = getelementptr inbounds %"struct.google::protobuf::internal::ArenaStringPtr", %"struct.google::protobuf::internal::ArenaStringPtr"* %7, i32 0, i32 0
  %20 = load %"class.google::protobuf::internal::InternalMetadataWithArena"*, %"class.google::protobuf::internal::InternalMetadataWithArena"** %19, align 8
  %21 = call dereferenceable(8) %"class.google::protobuf::internal::InternalMetadataWithArena"* @_ZNSsaSEOSs(%"class.google::protobuf::internal::InternalMetadataWithArena"* %20, %"class.google::protobuf::internal::InternalMetadataWithArena"* dereferenceable(8) %18)
  br label %22

; <label>:22:                                     ; preds = %16, %10
  ret void
}

; Function Attrs: noinline nounwind optnone uwtable
define linkonce_odr zeroext i1 @_ZNK6google8protobuf8internal14ArenaStringPtr9IsDefaultEPKSs(%"struct.google::protobuf::internal::ArenaStringPtr"*, %"class.google::protobuf::internal::InternalMetadataWithArena"*) #5 comdat align 2 {
  %3 = alloca %"struct.google::protobuf::internal::ArenaStringPtr"*, align 8
  %4 = alloca %"class.google::protobuf::internal::InternalMetadataWithArena"*, align 8
  store %"struct.google::protobuf::internal::ArenaStringPtr"* %0, %"struct.google::protobuf::internal::ArenaStringPtr"** %3, align 8
  store %"class.google::protobuf::internal::InternalMetadataWithArena"* %1, %"class.google::protobuf::internal::InternalMetadataWithArena"** %4, align 8
  %5 = load %"struct.google::protobuf::internal::ArenaStringPtr"*, %"struct.google::protobuf::internal::ArenaStringPtr"** %3, align 8
  %6 = getelementptr inbounds %"struct.google::protobuf::internal::ArenaStringPtr", %"struct.google::protobuf::internal::ArenaStringPtr"* %5, i32 0, i32 0
  %7 = load %"class.google::protobuf::internal::InternalMetadataWithArena"*, %"class.google::protobuf::internal::InternalMetadataWithArena"** %6, align 8
  %8 = load %"class.google::protobuf::internal::InternalMetadataWithArena"*, %"class.google::protobuf::internal::InternalMetadataWithArena"** %4, align 8
  %9 = icmp eq %"class.google::protobuf::internal::InternalMetadataWithArena"* %7, %8
  ret i1 %9
}

; Function Attrs: nobuiltin
declare noalias i8* @_Znwm(i64) #7

; Function Attrs: nounwind
declare void @_ZNSsC1EOSs(%"class.google::protobuf::internal::InternalMetadataWithArena"*, %"class.google::protobuf::internal::InternalMetadataWithArena"* dereferenceable(8)) unnamed_addr #2

declare dereferenceable(8) %"class.google::protobuf::internal::InternalMetadataWithArena"* @_ZNSsaSEOSs(%"class.google::protobuf::internal::InternalMetadataWithArena"*, %"class.google::protobuf::internal::InternalMetadataWithArena"* dereferenceable(8)) #1

; Function Attrs: noinline nounwind optnone uwtable
define linkonce_odr dereferenceable(8) %"class.google::protobuf::internal::InternalMetadataWithArena"* @_ZNK6google8protobuf8internal21ExplicitlyConstructedISsE3getEv(%"class.google::protobuf::internal::ExplicitlyConstructed"*) #5 comdat align 2 {
  %2 = alloca %"class.google::protobuf::internal::ExplicitlyConstructed"*, align 8
  store %"class.google::protobuf::internal::ExplicitlyConstructed"* %0, %"class.google::protobuf::internal::ExplicitlyConstructed"** %2, align 8
  %3 = load %"class.google::protobuf::internal::ExplicitlyConstructed"*, %"class.google::protobuf::internal::ExplicitlyConstructed"** %2, align 8
  %4 = getelementptr inbounds %"class.google::protobuf::internal::ExplicitlyConstructed", %"class.google::protobuf::internal::ExplicitlyConstructed"* %3, i32 0, i32 0
  %5 = bitcast %"union.google::protobuf::internal::ExplicitlyConstructed<std::basic_string<char> >::AlignedUnion"* %4 to %"class.google::protobuf::internal::InternalMetadataWithArena"*
  ret %"class.google::protobuf::internal::InternalMetadataWithArena"* %5
}

; Function Attrs: nounwind
declare i64 @_ZNKSs4sizeEv(%"class.google::protobuf::internal::InternalMetadataWithArena"*) #2

; Function Attrs: nounwind
declare i64 @_ZNKSs8capacityEv(%"class.google::protobuf::internal::InternalMetadataWithArena"*) #2

declare dereferenceable(8) %"class.google::protobuf::internal::InternalMetadataWithArena"* @_ZNSs6insertEmRKSs(%"class.google::protobuf::internal::InternalMetadataWithArena"*, i64, %"class.google::protobuf::internal::InternalMetadataWithArena"* dereferenceable(8)) #1

declare dereferenceable(8) %"class.google::protobuf::internal::InternalMetadataWithArena"* @_ZNSs6appendERKSs(%"class.google::protobuf::internal::InternalMetadataWithArena"*, %"class.google::protobuf::internal::InternalMetadataWithArena"* dereferenceable(8)) #1

declare dereferenceable(8) %"class.google::protobuf::internal::InternalMetadataWithArena"* @_ZNSs6appendEPKc(%"class.google::protobuf::internal::InternalMetadataWithArena"*, i8*) #1

declare dereferenceable(8) %"class.google::protobuf::internal::InternalMetadataWithArena"* @_ZNSs6insertEmPKc(%"class.google::protobuf::internal::InternalMetadataWithArena"*, i64, i8*) #1

; Function Attrs: noinline optnone uwtable
define void @_Z12TestFooAdd02RKN6sample3FooEi(%"class.sample::Foo"* noalias sret, %"class.sample::Foo"* dereferenceable(40), i32) #4 personality i8* bitcast (i32 (...)* @__gxx_personality_v0 to i8*) {
  %4 = alloca %"class.sample::Foo"*, align 8
  %5 = alloca i32, align 4
  %6 = alloca %"class.emp::Integer", align 8
  %7 = alloca i32, align 4
  %8 = alloca %"class.emp::Integer", align 8
  %9 = alloca i8*
  %10 = alloca i32
  %11 = alloca i32, align 4
  %12 = alloca %"class.emp::Integer", align 8
  %13 = alloca i1, align 1
  %14 = alloca %"class.google::protobuf::internal::InternalMetadataWithArena", align 8
  %15 = alloca %"class.google::protobuf::internal::InternalMetadataWithArena", align 8
  %16 = alloca %"class.google::protobuf::internal::InternalMetadataWithArena", align 8
  %17 = alloca %"class.google::protobuf::internal::InternalMetadataWithArena", align 8
  %18 = alloca %"class.google::protobuf::internal::InternalMetadataWithArena", align 8
  %19 = alloca %"class.google::protobuf::internal::InternalMetadataWithArena", align 8
  %20 = alloca %"class.google::protobuf::internal::InternalMetadataWithArena", align 8
  %21 = alloca %"class.google::protobuf::internal::InternalMetadataWithArena", align 8
  store %"class.sample::Foo"* %1, %"class.sample::Foo"** %4, align 8
  store i32 %2, i32* %5, align 4
  %22 = load %"class.sample::Foo"*, %"class.sample::Foo"** %4, align 8
  %23 = call i32 @_ZNK6sample3Foo3i32Ev(%"class.sample::Foo"* %22)
  %24 = load i32, i32* %5, align 4
  %25 = call i32 (i8*, ...) @printf(i8* getelementptr inbounds ([22 x i8], [22 x i8]* @.str, i32 0, i32 0), i8* getelementptr inbounds ([13 x i8], [13 x i8]* @__FUNCTION__._Z12TestFooAdd02RKN6sample3FooEi, i32 0, i32 0), i32 %23, i32 %24)
  %26 = load %"class.sample::Foo"*, %"class.sample::Foo"** %4, align 8
  %27 = call i32 @_ZNK6sample3Foo3i32Ev(%"class.sample::Foo"* %26)
  store i32 %27, i32* %7, align 4
  call void @_ZN3emp7IntegerC1ERKii(%"class.emp::Integer"* %6, i32* dereferenceable(4) %7, i32 1)
  invoke void @_ZN3emp7IntegerC1ERKii(%"class.emp::Integer"* %8, i32* dereferenceable(4) %5, i32 2)
          to label %28 unwind label %55

; <label>:28:                                     ; preds = %3
  invoke void @_ZNK3emp7IntegerplERKS0_(%"class.emp::Integer"* sret %12, %"class.emp::Integer"* %6, %"class.emp::Integer"* dereferenceable(16) %8)
          to label %29 unwind label %59

; <label>:29:                                     ; preds = %28
  %30 = invoke i64 @_ZNK3emp7Integer10reveal_intEi(%"class.emp::Integer"* %12, i32 0)
          to label %31 unwind label %63

; <label>:31:                                     ; preds = %29
  %32 = trunc i64 %30 to i32
  call void @_ZN3emp7IntegerD1Ev(%"class.emp::Integer"* %12) #3
  store i32 %32, i32* %11, align 4
  %33 = load i32, i32* %11, align 4
  %34 = invoke i32 (i8*, ...) @printf(i8* getelementptr inbounds ([27 x i8], [27 x i8]* @.str.5, i32 0, i32 0), i8* getelementptr inbounds ([13 x i8], [13 x i8]* @__FUNCTION__._Z12TestFooAdd02RKN6sample3FooEi, i32 0, i32 0), i32 %33)
          to label %35 unwind label %59

; <label>:35:                                     ; preds = %31
  store i1 false, i1* %13, align 1
  invoke void @_ZN6sample3FooC1Ev(%"class.sample::Foo"* %0)
          to label %36 unwind label %59

; <label>:36:                                     ; preds = %35
  %37 = load i32, i32* %11, align 4
  invoke void @_ZN6sample3Foo7set_i32Ei(%"class.sample::Foo"* %0, i32 %37)
          to label %38 unwind label %67

; <label>:38:                                     ; preds = %36
  invoke void @_ZN6sample3Foo5set_fEf(%"class.sample::Foo"* %0, float 2.220000e+02)
          to label %39 unwind label %67

; <label>:39:                                     ; preds = %38
  %40 = load %"class.sample::Foo"*, %"class.sample::Foo"** %4, align 8
  %41 = invoke i32 @_ZNK6sample3Foo3i32Ev(%"class.sample::Foo"* %40)
          to label %42 unwind label %67

; <label>:42:                                     ; preds = %39
  invoke void @_ZSt9to_stringi(%"class.google::protobuf::internal::InternalMetadataWithArena"* sret %19, i32 %41)
          to label %43 unwind label %67

; <label>:43:                                     ; preds = %42
  invoke void @_ZStplIcSt11char_traitsIcESaIcEESbIT_T0_T1_EPKS3_OS6_(%"class.google::protobuf::internal::InternalMetadataWithArena"* sret %18, i8* getelementptr inbounds ([21 x i8], [21 x i8]* @.str.11, i32 0, i32 0), %"class.google::protobuf::internal::InternalMetadataWithArena"* dereferenceable(8) %19)
          to label %44 unwind label %71

; <label>:44:                                     ; preds = %43
  invoke void @_ZStplIcSt11char_traitsIcESaIcEESbIT_T0_T1_EOS6_PKS3_(%"class.google::protobuf::internal::InternalMetadataWithArena"* sret %17, %"class.google::protobuf::internal::InternalMetadataWithArena"* dereferenceable(8) %18, i8* getelementptr inbounds ([2 x i8], [2 x i8]* @.str.12, i32 0, i32 0))
          to label %45 unwind label %75

; <label>:45:                                     ; preds = %44
  %46 = load i32, i32* %5, align 4
  invoke void @_ZSt9to_stringi(%"class.google::protobuf::internal::InternalMetadataWithArena"* sret %20, i32 %46)
          to label %47 unwind label %79

; <label>:47:                                     ; preds = %45
  invoke void @_ZStplIcSt11char_traitsIcESaIcEESbIT_T0_T1_EOS6_S7_(%"class.google::protobuf::internal::InternalMetadataWithArena"* sret %16, %"class.google::protobuf::internal::InternalMetadataWithArena"* dereferenceable(8) %17, %"class.google::protobuf::internal::InternalMetadataWithArena"* dereferenceable(8) %20)
          to label %48 unwind label %83

; <label>:48:                                     ; preds = %47
  invoke void @_ZStplIcSt11char_traitsIcESaIcEESbIT_T0_T1_EOS6_PKS3_(%"class.google::protobuf::internal::InternalMetadataWithArena"* sret %15, %"class.google::protobuf::internal::InternalMetadataWithArena"* dereferenceable(8) %16, i8* getelementptr inbounds ([2 x i8], [2 x i8]* @.str.13, i32 0, i32 0))
          to label %49 unwind label %87

; <label>:49:                                     ; preds = %48
  %50 = load i32, i32* %11, align 4
  invoke void @_ZSt9to_stringi(%"class.google::protobuf::internal::InternalMetadataWithArena"* sret %21, i32 %50)
          to label %51 unwind label %91

; <label>:51:                                     ; preds = %49
  invoke void @_ZStplIcSt11char_traitsIcESaIcEESbIT_T0_T1_EOS6_S7_(%"class.google::protobuf::internal::InternalMetadataWithArena"* sret %14, %"class.google::protobuf::internal::InternalMetadataWithArena"* dereferenceable(8) %15, %"class.google::protobuf::internal::InternalMetadataWithArena"* dereferenceable(8) %21)
          to label %52 unwind label %95

; <label>:52:                                     ; preds = %51
  invoke void @_ZN6sample3Foo5set_sEOSs(%"class.sample::Foo"* %0, %"class.google::protobuf::internal::InternalMetadataWithArena"* dereferenceable(8) %14)
          to label %53 unwind label %99

; <label>:53:                                     ; preds = %52
  call void @_ZNSsD1Ev(%"class.google::protobuf::internal::InternalMetadataWithArena"* %14) #3
  call void @_ZNSsD1Ev(%"class.google::protobuf::internal::InternalMetadataWithArena"* %21) #3
  call void @_ZNSsD1Ev(%"class.google::protobuf::internal::InternalMetadataWithArena"* %15) #3
  call void @_ZNSsD1Ev(%"class.google::protobuf::internal::InternalMetadataWithArena"* %16) #3
  call void @_ZNSsD1Ev(%"class.google::protobuf::internal::InternalMetadataWithArena"* %20) #3
  call void @_ZNSsD1Ev(%"class.google::protobuf::internal::InternalMetadataWithArena"* %17) #3
  call void @_ZNSsD1Ev(%"class.google::protobuf::internal::InternalMetadataWithArena"* %18) #3
  call void @_ZNSsD1Ev(%"class.google::protobuf::internal::InternalMetadataWithArena"* %19) #3
  store i1 true, i1* %13, align 1
  %54 = load i1, i1* %13, align 1
  br i1 %54, label %111, label %110

; <label>:55:                                     ; preds = %3
  %56 = landingpad { i8*, i32 }
          cleanup
  %57 = extractvalue { i8*, i32 } %56, 0
  store i8* %57, i8** %9, align 8
  %58 = extractvalue { i8*, i32 } %56, 1
  store i32 %58, i32* %10, align 4
  br label %114

; <label>:59:                                     ; preds = %35, %31, %28
  %60 = landingpad { i8*, i32 }
          cleanup
  %61 = extractvalue { i8*, i32 } %60, 0
  store i8* %61, i8** %9, align 8
  %62 = extractvalue { i8*, i32 } %60, 1
  store i32 %62, i32* %10, align 4
  br label %113

; <label>:63:                                     ; preds = %29
  %64 = landingpad { i8*, i32 }
          cleanup
  %65 = extractvalue { i8*, i32 } %64, 0
  store i8* %65, i8** %9, align 8
  %66 = extractvalue { i8*, i32 } %64, 1
  store i32 %66, i32* %10, align 4
  call void @_ZN3emp7IntegerD1Ev(%"class.emp::Integer"* %12) #3
  br label %113

; <label>:67:                                     ; preds = %42, %39, %38, %36
  %68 = landingpad { i8*, i32 }
          cleanup
  %69 = extractvalue { i8*, i32 } %68, 0
  store i8* %69, i8** %9, align 8
  %70 = extractvalue { i8*, i32 } %68, 1
  store i32 %70, i32* %10, align 4
  br label %112

; <label>:71:                                     ; preds = %43
  %72 = landingpad { i8*, i32 }
          cleanup
  %73 = extractvalue { i8*, i32 } %72, 0
  store i8* %73, i8** %9, align 8
  %74 = extractvalue { i8*, i32 } %72, 1
  store i32 %74, i32* %10, align 4
  br label %109

; <label>:75:                                     ; preds = %44
  %76 = landingpad { i8*, i32 }
          cleanup
  %77 = extractvalue { i8*, i32 } %76, 0
  store i8* %77, i8** %9, align 8
  %78 = extractvalue { i8*, i32 } %76, 1
  store i32 %78, i32* %10, align 4
  br label %108

; <label>:79:                                     ; preds = %45
  %80 = landingpad { i8*, i32 }
          cleanup
  %81 = extractvalue { i8*, i32 } %80, 0
  store i8* %81, i8** %9, align 8
  %82 = extractvalue { i8*, i32 } %80, 1
  store i32 %82, i32* %10, align 4
  br label %107

; <label>:83:                                     ; preds = %47
  %84 = landingpad { i8*, i32 }
          cleanup
  %85 = extractvalue { i8*, i32 } %84, 0
  store i8* %85, i8** %9, align 8
  %86 = extractvalue { i8*, i32 } %84, 1
  store i32 %86, i32* %10, align 4
  br label %106

; <label>:87:                                     ; preds = %48
  %88 = landingpad { i8*, i32 }
          cleanup
  %89 = extractvalue { i8*, i32 } %88, 0
  store i8* %89, i8** %9, align 8
  %90 = extractvalue { i8*, i32 } %88, 1
  store i32 %90, i32* %10, align 4
  br label %105

; <label>:91:                                     ; preds = %49
  %92 = landingpad { i8*, i32 }
          cleanup
  %93 = extractvalue { i8*, i32 } %92, 0
  store i8* %93, i8** %9, align 8
  %94 = extractvalue { i8*, i32 } %92, 1
  store i32 %94, i32* %10, align 4
  br label %104

; <label>:95:                                     ; preds = %51
  %96 = landingpad { i8*, i32 }
          cleanup
  %97 = extractvalue { i8*, i32 } %96, 0
  store i8* %97, i8** %9, align 8
  %98 = extractvalue { i8*, i32 } %96, 1
  store i32 %98, i32* %10, align 4
  br label %103

; <label>:99:                                     ; preds = %52
  %100 = landingpad { i8*, i32 }
          cleanup
  %101 = extractvalue { i8*, i32 } %100, 0
  store i8* %101, i8** %9, align 8
  %102 = extractvalue { i8*, i32 } %100, 1
  store i32 %102, i32* %10, align 4
  call void @_ZNSsD1Ev(%"class.google::protobuf::internal::InternalMetadataWithArena"* %14) #3
  br label %103

; <label>:103:                                    ; preds = %99, %95
  call void @_ZNSsD1Ev(%"class.google::protobuf::internal::InternalMetadataWithArena"* %21) #3
  br label %104

; <label>:104:                                    ; preds = %103, %91
  call void @_ZNSsD1Ev(%"class.google::protobuf::internal::InternalMetadataWithArena"* %15) #3
  br label %105

; <label>:105:                                    ; preds = %104, %87
  call void @_ZNSsD1Ev(%"class.google::protobuf::internal::InternalMetadataWithArena"* %16) #3
  br label %106

; <label>:106:                                    ; preds = %105, %83
  call void @_ZNSsD1Ev(%"class.google::protobuf::internal::InternalMetadataWithArena"* %20) #3
  br label %107

; <label>:107:                                    ; preds = %106, %79
  call void @_ZNSsD1Ev(%"class.google::protobuf::internal::InternalMetadataWithArena"* %17) #3
  br label %108

; <label>:108:                                    ; preds = %107, %75
  call void @_ZNSsD1Ev(%"class.google::protobuf::internal::InternalMetadataWithArena"* %18) #3
  br label %109

; <label>:109:                                    ; preds = %108, %71
  call void @_ZNSsD1Ev(%"class.google::protobuf::internal::InternalMetadataWithArena"* %19) #3
  br label %112

; <label>:110:                                    ; preds = %53
  call void @_ZN6sample3FooD1Ev(%"class.sample::Foo"* %0) #3
  br label %111

; <label>:111:                                    ; preds = %110, %53
  call void @_ZN3emp7IntegerD1Ev(%"class.emp::Integer"* %8) #3
  call void @_ZN3emp7IntegerD1Ev(%"class.emp::Integer"* %6) #3
  ret void

; <label>:112:                                    ; preds = %109, %67
  call void @_ZN6sample3FooD1Ev(%"class.sample::Foo"* %0) #3
  br label %113

; <label>:113:                                    ; preds = %112, %63, %59
  call void @_ZN3emp7IntegerD1Ev(%"class.emp::Integer"* %8) #3
  br label %114

; <label>:114:                                    ; preds = %113, %55
  call void @_ZN3emp7IntegerD1Ev(%"class.emp::Integer"* %6) #3
  br label %115

; <label>:115:                                    ; preds = %114
  %116 = load i8*, i8** %9, align 8
  %117 = load i32, i32* %10, align 4
  %118 = insertvalue { i8*, i32 } undef, i8* %116, 0
  %119 = insertvalue { i8*, i32 } %118, i32 %117, 1
  resume { i8*, i32 } %119
}

; Function Attrs: noinline optnone uwtable
define void @_Z12TestFooAdd03ii(%"class.sample::Foo"* noalias sret, i32, i32) #4 personality i8* bitcast (i32 (...)* @__gxx_personality_v0 to i8*) {
  %4 = alloca i32, align 4
  %5 = alloca i32, align 4
  %6 = alloca %"class.emp::Integer", align 8
  %7 = alloca %"class.emp::Integer", align 8
  %8 = alloca i8*
  %9 = alloca i32
  %10 = alloca i32, align 4
  %11 = alloca %"class.emp::Integer", align 8
  %12 = alloca i1, align 1
  %13 = alloca %"class.google::protobuf::internal::InternalMetadataWithArena", align 8
  %14 = alloca %"class.google::protobuf::internal::InternalMetadataWithArena", align 8
  %15 = alloca %"class.google::protobuf::internal::InternalMetadataWithArena", align 8
  %16 = alloca %"class.google::protobuf::internal::InternalMetadataWithArena", align 8
  %17 = alloca %"class.google::protobuf::internal::InternalMetadataWithArena", align 8
  %18 = alloca %"class.google::protobuf::internal::InternalMetadataWithArena", align 8
  %19 = alloca %"class.google::protobuf::internal::InternalMetadataWithArena", align 8
  %20 = alloca %"class.google::protobuf::internal::InternalMetadataWithArena", align 8
  store i32 %1, i32* %4, align 4
  store i32 %2, i32* %5, align 4
  %21 = load i32, i32* %4, align 4
  %22 = load i32, i32* %5, align 4
  %23 = call i32 (i8*, ...) @printf(i8* getelementptr inbounds ([22 x i8], [22 x i8]* @.str, i32 0, i32 0), i8* getelementptr inbounds ([13 x i8], [13 x i8]* @__FUNCTION__._Z12TestFooAdd03ii, i32 0, i32 0), i32 %21, i32 %22)
  call void @_ZN3emp7IntegerC1ERKii(%"class.emp::Integer"* %6, i32* dereferenceable(4) %4, i32 1)
  invoke void @_ZN3emp7IntegerC1ERKii(%"class.emp::Integer"* %7, i32* dereferenceable(4) %5, i32 2)
          to label %24 unwind label %49

; <label>:24:                                     ; preds = %3
  invoke void @_ZNK3emp7IntegerplERKS0_(%"class.emp::Integer"* sret %11, %"class.emp::Integer"* %6, %"class.emp::Integer"* dereferenceable(16) %7)
          to label %25 unwind label %53

; <label>:25:                                     ; preds = %24
  %26 = invoke i64 @_ZNK3emp7Integer10reveal_intEi(%"class.emp::Integer"* %11, i32 0)
          to label %27 unwind label %57

; <label>:27:                                     ; preds = %25
  %28 = trunc i64 %26 to i32
  call void @_ZN3emp7IntegerD1Ev(%"class.emp::Integer"* %11) #3
  store i32 %28, i32* %10, align 4
  %29 = load i32, i32* %10, align 4
  %30 = invoke i32 (i8*, ...) @printf(i8* getelementptr inbounds ([27 x i8], [27 x i8]* @.str.5, i32 0, i32 0), i8* getelementptr inbounds ([13 x i8], [13 x i8]* @__FUNCTION__._Z12TestFooAdd03ii, i32 0, i32 0), i32 %29)
          to label %31 unwind label %53

; <label>:31:                                     ; preds = %27
  store i1 false, i1* %12, align 1
  invoke void @_ZN6sample3FooC1Ev(%"class.sample::Foo"* %0)
          to label %32 unwind label %53

; <label>:32:                                     ; preds = %31
  %33 = load i32, i32* %10, align 4
  invoke void @_ZN6sample3Foo7set_i32Ei(%"class.sample::Foo"* %0, i32 %33)
          to label %34 unwind label %61

; <label>:34:                                     ; preds = %32
  invoke void @_ZN6sample3Foo5set_fEf(%"class.sample::Foo"* %0, float 3.330000e+02)
          to label %35 unwind label %61

; <label>:35:                                     ; preds = %34
  %36 = load i32, i32* %4, align 4
  invoke void @_ZSt9to_stringi(%"class.google::protobuf::internal::InternalMetadataWithArena"* sret %18, i32 %36)
          to label %37 unwind label %61

; <label>:37:                                     ; preds = %35
  invoke void @_ZStplIcSt11char_traitsIcESaIcEESbIT_T0_T1_EPKS3_OS6_(%"class.google::protobuf::internal::InternalMetadataWithArena"* sret %17, i8* getelementptr inbounds ([21 x i8], [21 x i8]* @.str.11, i32 0, i32 0), %"class.google::protobuf::internal::InternalMetadataWithArena"* dereferenceable(8) %18)
          to label %38 unwind label %65

; <label>:38:                                     ; preds = %37
  invoke void @_ZStplIcSt11char_traitsIcESaIcEESbIT_T0_T1_EOS6_PKS3_(%"class.google::protobuf::internal::InternalMetadataWithArena"* sret %16, %"class.google::protobuf::internal::InternalMetadataWithArena"* dereferenceable(8) %17, i8* getelementptr inbounds ([2 x i8], [2 x i8]* @.str.12, i32 0, i32 0))
          to label %39 unwind label %69

; <label>:39:                                     ; preds = %38
  %40 = load i32, i32* %5, align 4
  invoke void @_ZSt9to_stringi(%"class.google::protobuf::internal::InternalMetadataWithArena"* sret %19, i32 %40)
          to label %41 unwind label %73

; <label>:41:                                     ; preds = %39
  invoke void @_ZStplIcSt11char_traitsIcESaIcEESbIT_T0_T1_EOS6_S7_(%"class.google::protobuf::internal::InternalMetadataWithArena"* sret %15, %"class.google::protobuf::internal::InternalMetadataWithArena"* dereferenceable(8) %16, %"class.google::protobuf::internal::InternalMetadataWithArena"* dereferenceable(8) %19)
          to label %42 unwind label %77

; <label>:42:                                     ; preds = %41
  invoke void @_ZStplIcSt11char_traitsIcESaIcEESbIT_T0_T1_EOS6_PKS3_(%"class.google::protobuf::internal::InternalMetadataWithArena"* sret %14, %"class.google::protobuf::internal::InternalMetadataWithArena"* dereferenceable(8) %15, i8* getelementptr inbounds ([2 x i8], [2 x i8]* @.str.13, i32 0, i32 0))
          to label %43 unwind label %81

; <label>:43:                                     ; preds = %42
  %44 = load i32, i32* %10, align 4
  invoke void @_ZSt9to_stringi(%"class.google::protobuf::internal::InternalMetadataWithArena"* sret %20, i32 %44)
          to label %45 unwind label %85

; <label>:45:                                     ; preds = %43
  invoke void @_ZStplIcSt11char_traitsIcESaIcEESbIT_T0_T1_EOS6_S7_(%"class.google::protobuf::internal::InternalMetadataWithArena"* sret %13, %"class.google::protobuf::internal::InternalMetadataWithArena"* dereferenceable(8) %14, %"class.google::protobuf::internal::InternalMetadataWithArena"* dereferenceable(8) %20)
          to label %46 unwind label %89

; <label>:46:                                     ; preds = %45
  invoke void @_ZN6sample3Foo5set_sEOSs(%"class.sample::Foo"* %0, %"class.google::protobuf::internal::InternalMetadataWithArena"* dereferenceable(8) %13)
          to label %47 unwind label %93

; <label>:47:                                     ; preds = %46
  call void @_ZNSsD1Ev(%"class.google::protobuf::internal::InternalMetadataWithArena"* %13) #3
  call void @_ZNSsD1Ev(%"class.google::protobuf::internal::InternalMetadataWithArena"* %20) #3
  call void @_ZNSsD1Ev(%"class.google::protobuf::internal::InternalMetadataWithArena"* %14) #3
  call void @_ZNSsD1Ev(%"class.google::protobuf::internal::InternalMetadataWithArena"* %15) #3
  call void @_ZNSsD1Ev(%"class.google::protobuf::internal::InternalMetadataWithArena"* %19) #3
  call void @_ZNSsD1Ev(%"class.google::protobuf::internal::InternalMetadataWithArena"* %16) #3
  call void @_ZNSsD1Ev(%"class.google::protobuf::internal::InternalMetadataWithArena"* %17) #3
  call void @_ZNSsD1Ev(%"class.google::protobuf::internal::InternalMetadataWithArena"* %18) #3
  store i1 true, i1* %12, align 1
  %48 = load i1, i1* %12, align 1
  br i1 %48, label %105, label %104

; <label>:49:                                     ; preds = %3
  %50 = landingpad { i8*, i32 }
          cleanup
  %51 = extractvalue { i8*, i32 } %50, 0
  store i8* %51, i8** %8, align 8
  %52 = extractvalue { i8*, i32 } %50, 1
  store i32 %52, i32* %9, align 4
  br label %108

; <label>:53:                                     ; preds = %31, %27, %24
  %54 = landingpad { i8*, i32 }
          cleanup
  %55 = extractvalue { i8*, i32 } %54, 0
  store i8* %55, i8** %8, align 8
  %56 = extractvalue { i8*, i32 } %54, 1
  store i32 %56, i32* %9, align 4
  br label %107

; <label>:57:                                     ; preds = %25
  %58 = landingpad { i8*, i32 }
          cleanup
  %59 = extractvalue { i8*, i32 } %58, 0
  store i8* %59, i8** %8, align 8
  %60 = extractvalue { i8*, i32 } %58, 1
  store i32 %60, i32* %9, align 4
  call void @_ZN3emp7IntegerD1Ev(%"class.emp::Integer"* %11) #3
  br label %107

; <label>:61:                                     ; preds = %35, %34, %32
  %62 = landingpad { i8*, i32 }
          cleanup
  %63 = extractvalue { i8*, i32 } %62, 0
  store i8* %63, i8** %8, align 8
  %64 = extractvalue { i8*, i32 } %62, 1
  store i32 %64, i32* %9, align 4
  br label %106

; <label>:65:                                     ; preds = %37
  %66 = landingpad { i8*, i32 }
          cleanup
  %67 = extractvalue { i8*, i32 } %66, 0
  store i8* %67, i8** %8, align 8
  %68 = extractvalue { i8*, i32 } %66, 1
  store i32 %68, i32* %9, align 4
  br label %103

; <label>:69:                                     ; preds = %38
  %70 = landingpad { i8*, i32 }
          cleanup
  %71 = extractvalue { i8*, i32 } %70, 0
  store i8* %71, i8** %8, align 8
  %72 = extractvalue { i8*, i32 } %70, 1
  store i32 %72, i32* %9, align 4
  br label %102

; <label>:73:                                     ; preds = %39
  %74 = landingpad { i8*, i32 }
          cleanup
  %75 = extractvalue { i8*, i32 } %74, 0
  store i8* %75, i8** %8, align 8
  %76 = extractvalue { i8*, i32 } %74, 1
  store i32 %76, i32* %9, align 4
  br label %101

; <label>:77:                                     ; preds = %41
  %78 = landingpad { i8*, i32 }
          cleanup
  %79 = extractvalue { i8*, i32 } %78, 0
  store i8* %79, i8** %8, align 8
  %80 = extractvalue { i8*, i32 } %78, 1
  store i32 %80, i32* %9, align 4
  br label %100

; <label>:81:                                     ; preds = %42
  %82 = landingpad { i8*, i32 }
          cleanup
  %83 = extractvalue { i8*, i32 } %82, 0
  store i8* %83, i8** %8, align 8
  %84 = extractvalue { i8*, i32 } %82, 1
  store i32 %84, i32* %9, align 4
  br label %99

; <label>:85:                                     ; preds = %43
  %86 = landingpad { i8*, i32 }
          cleanup
  %87 = extractvalue { i8*, i32 } %86, 0
  store i8* %87, i8** %8, align 8
  %88 = extractvalue { i8*, i32 } %86, 1
  store i32 %88, i32* %9, align 4
  br label %98

; <label>:89:                                     ; preds = %45
  %90 = landingpad { i8*, i32 }
          cleanup
  %91 = extractvalue { i8*, i32 } %90, 0
  store i8* %91, i8** %8, align 8
  %92 = extractvalue { i8*, i32 } %90, 1
  store i32 %92, i32* %9, align 4
  br label %97

; <label>:93:                                     ; preds = %46
  %94 = landingpad { i8*, i32 }
          cleanup
  %95 = extractvalue { i8*, i32 } %94, 0
  store i8* %95, i8** %8, align 8
  %96 = extractvalue { i8*, i32 } %94, 1
  store i32 %96, i32* %9, align 4
  call void @_ZNSsD1Ev(%"class.google::protobuf::internal::InternalMetadataWithArena"* %13) #3
  br label %97

; <label>:97:                                     ; preds = %93, %89
  call void @_ZNSsD1Ev(%"class.google::protobuf::internal::InternalMetadataWithArena"* %20) #3
  br label %98

; <label>:98:                                     ; preds = %97, %85
  call void @_ZNSsD1Ev(%"class.google::protobuf::internal::InternalMetadataWithArena"* %14) #3
  br label %99

; <label>:99:                                     ; preds = %98, %81
  call void @_ZNSsD1Ev(%"class.google::protobuf::internal::InternalMetadataWithArena"* %15) #3
  br label %100

; <label>:100:                                    ; preds = %99, %77
  call void @_ZNSsD1Ev(%"class.google::protobuf::internal::InternalMetadataWithArena"* %19) #3
  br label %101

; <label>:101:                                    ; preds = %100, %73
  call void @_ZNSsD1Ev(%"class.google::protobuf::internal::InternalMetadataWithArena"* %16) #3
  br label %102

; <label>:102:                                    ; preds = %101, %69
  call void @_ZNSsD1Ev(%"class.google::protobuf::internal::InternalMetadataWithArena"* %17) #3
  br label %103

; <label>:103:                                    ; preds = %102, %65
  call void @_ZNSsD1Ev(%"class.google::protobuf::internal::InternalMetadataWithArena"* %18) #3
  br label %106

; <label>:104:                                    ; preds = %47
  call void @_ZN6sample3FooD1Ev(%"class.sample::Foo"* %0) #3
  br label %105

; <label>:105:                                    ; preds = %104, %47
  call void @_ZN3emp7IntegerD1Ev(%"class.emp::Integer"* %7) #3
  call void @_ZN3emp7IntegerD1Ev(%"class.emp::Integer"* %6) #3
  ret void

; <label>:106:                                    ; preds = %103, %61
  call void @_ZN6sample3FooD1Ev(%"class.sample::Foo"* %0) #3
  br label %107

; <label>:107:                                    ; preds = %106, %57, %53
  call void @_ZN3emp7IntegerD1Ev(%"class.emp::Integer"* %7) #3
  br label %108

; <label>:108:                                    ; preds = %107, %49
  call void @_ZN3emp7IntegerD1Ev(%"class.emp::Integer"* %6) #3
  br label %109

; <label>:109:                                    ; preds = %108
  %110 = load i8*, i8** %8, align 8
  %111 = load i32, i32* %9, align 4
  %112 = insertvalue { i8*, i32 } undef, i8* %110, 0
  %113 = insertvalue { i8*, i32 } %112, i32 %111, 1
  resume { i8*, i32 } %113
}

; Function Attrs: noinline optnone uwtable
define void @_Z12TestBarAdd01RKN6sample3BarES2_(%"class.sample::Bar"* noalias sret, %"class.sample::Bar"* dereferenceable(40), %"class.sample::Bar"* dereferenceable(40)) #4 personality i8* bitcast (i32 (...)* @__gxx_personality_v0 to i8*) {
  %4 = alloca %"class.sample::Bar"*, align 8
  %5 = alloca %"class.sample::Bar"*, align 8
  %6 = alloca %"class.emp::Integer", align 8
  %7 = alloca i32, align 4
  %8 = alloca %"class.emp::Integer", align 8
  %9 = alloca i32, align 4
  %10 = alloca i8*
  %11 = alloca i32
  %12 = alloca i32, align 4
  %13 = alloca %"class.emp::Integer", align 8
  %14 = alloca %"class.emp::Integer", align 8
  %15 = alloca i32, align 4
  %16 = alloca %"class.emp::Integer", align 8
  %17 = alloca i32, align 4
  %18 = alloca i32, align 4
  %19 = alloca %"class.emp::Integer", align 8
  %20 = alloca %"class.sample::Foo"*, align 8
  %21 = alloca %"class.google::protobuf::internal::InternalMetadataWithArena", align 8
  %22 = alloca %"class.google::protobuf::internal::InternalMetadataWithArena", align 8
  %23 = alloca %"class.google::protobuf::internal::InternalMetadataWithArena", align 8
  %24 = alloca %"class.google::protobuf::internal::InternalMetadataWithArena", align 8
  %25 = alloca %"class.google::protobuf::internal::InternalMetadataWithArena", align 8
  %26 = alloca %"class.google::protobuf::internal::InternalMetadataWithArena", align 8
  %27 = alloca %"class.google::protobuf::internal::InternalMetadataWithArena", align 8
  %28 = alloca %"class.google::protobuf::internal::InternalMetadataWithArena", align 8
  %29 = alloca i1, align 1
  store %"class.sample::Bar"* %1, %"class.sample::Bar"** %4, align 8
  store %"class.sample::Bar"* %2, %"class.sample::Bar"** %5, align 8
  %30 = load %"class.sample::Bar"*, %"class.sample::Bar"** %4, align 8
  %31 = call i32 @_ZNK6sample3Bar3i32Ev(%"class.sample::Bar"* %30)
  %32 = load %"class.sample::Bar"*, %"class.sample::Bar"** %5, align 8
  %33 = call i32 @_ZNK6sample3Bar3i32Ev(%"class.sample::Bar"* %32)
  %34 = call i32 (i8*, ...) @printf(i8* getelementptr inbounds ([26 x i8], [26 x i8]* @.str.14, i32 0, i32 0), i8* getelementptr inbounds ([13 x i8], [13 x i8]* @__FUNCTION__._Z12TestBarAdd01RKN6sample3BarES2_, i32 0, i32 0), i32 %31, i32 %33)
  %35 = load %"class.sample::Bar"*, %"class.sample::Bar"** %4, align 8
  %36 = call dereferenceable(40) %"class.sample::Foo"* @_ZNK6sample3Bar3fooEv(%"class.sample::Bar"* %35)
  %37 = call i32 @_ZNK6sample3Foo3i32Ev(%"class.sample::Foo"* %36)
  %38 = load %"class.sample::Bar"*, %"class.sample::Bar"** %5, align 8
  %39 = call dereferenceable(40) %"class.sample::Foo"* @_ZNK6sample3Bar3fooEv(%"class.sample::Bar"* %38)
  %40 = call i32 @_ZNK6sample3Foo3i32Ev(%"class.sample::Foo"* %39)
  %41 = call i32 (i8*, ...) @printf(i8* getelementptr inbounds ([30 x i8], [30 x i8]* @.str.15, i32 0, i32 0), i8* getelementptr inbounds ([13 x i8], [13 x i8]* @__FUNCTION__._Z12TestBarAdd01RKN6sample3BarES2_, i32 0, i32 0), i32 %37, i32 %40)
  %42 = load %"class.sample::Bar"*, %"class.sample::Bar"** %4, align 8
  %43 = call i32 @_ZNK6sample3Bar3i32Ev(%"class.sample::Bar"* %42)
  store i32 %43, i32* %7, align 4
  call void @_ZN3emp7IntegerC1ERKii(%"class.emp::Integer"* %6, i32* dereferenceable(4) %7, i32 1)
  %44 = load %"class.sample::Bar"*, %"class.sample::Bar"** %5, align 8
  %45 = invoke i32 @_ZNK6sample3Bar3i32Ev(%"class.sample::Bar"* %44)
          to label %46 unwind label %106

; <label>:46:                                     ; preds = %3
  store i32 %45, i32* %9, align 4
  invoke void @_ZN3emp7IntegerC1ERKii(%"class.emp::Integer"* %8, i32* dereferenceable(4) %9, i32 2)
          to label %47 unwind label %106

; <label>:47:                                     ; preds = %46
  invoke void @_ZNK3emp7IntegerplERKS0_(%"class.emp::Integer"* sret %13, %"class.emp::Integer"* %6, %"class.emp::Integer"* dereferenceable(16) %8)
          to label %48 unwind label %110

; <label>:48:                                     ; preds = %47
  %49 = invoke i64 @_ZNK3emp7Integer10reveal_intEi(%"class.emp::Integer"* %13, i32 0)
          to label %50 unwind label %114

; <label>:50:                                     ; preds = %48
  %51 = trunc i64 %49 to i32
  call void @_ZN3emp7IntegerD1Ev(%"class.emp::Integer"* %13) #3
  store i32 %51, i32* %12, align 4
  %52 = load i32, i32* %12, align 4
  %53 = invoke i32 (i8*, ...) @printf(i8* getelementptr inbounds ([27 x i8], [27 x i8]* @.str.5, i32 0, i32 0), i8* getelementptr inbounds ([13 x i8], [13 x i8]* @__FUNCTION__._Z12TestBarAdd01RKN6sample3BarES2_, i32 0, i32 0), i32 %52)
          to label %54 unwind label %110

; <label>:54:                                     ; preds = %50
  %55 = load %"class.sample::Bar"*, %"class.sample::Bar"** %4, align 8
  %56 = invoke dereferenceable(40) %"class.sample::Foo"* @_ZNK6sample3Bar3fooEv(%"class.sample::Bar"* %55)
          to label %57 unwind label %110

; <label>:57:                                     ; preds = %54
  %58 = invoke i32 @_ZNK6sample3Foo3i32Ev(%"class.sample::Foo"* %56)
          to label %59 unwind label %110

; <label>:59:                                     ; preds = %57
  store i32 %58, i32* %15, align 4
  invoke void @_ZN3emp7IntegerC1ERKii(%"class.emp::Integer"* %14, i32* dereferenceable(4) %15, i32 1)
          to label %60 unwind label %110

; <label>:60:                                     ; preds = %59
  %61 = load %"class.sample::Bar"*, %"class.sample::Bar"** %5, align 8
  %62 = invoke dereferenceable(40) %"class.sample::Foo"* @_ZNK6sample3Bar3fooEv(%"class.sample::Bar"* %61)
          to label %63 unwind label %118

; <label>:63:                                     ; preds = %60
  %64 = invoke i32 @_ZNK6sample3Foo3i32Ev(%"class.sample::Foo"* %62)
          to label %65 unwind label %118

; <label>:65:                                     ; preds = %63
  store i32 %64, i32* %17, align 4
  invoke void @_ZN3emp7IntegerC1ERKii(%"class.emp::Integer"* %16, i32* dereferenceable(4) %17, i32 2)
          to label %66 unwind label %118

; <label>:66:                                     ; preds = %65
  invoke void @_ZNK3emp7IntegerplERKS0_(%"class.emp::Integer"* sret %19, %"class.emp::Integer"* %14, %"class.emp::Integer"* dereferenceable(16) %16)
          to label %67 unwind label %122

; <label>:67:                                     ; preds = %66
  %68 = invoke i64 @_ZNK3emp7Integer10reveal_intEi(%"class.emp::Integer"* %19, i32 0)
          to label %69 unwind label %126

; <label>:69:                                     ; preds = %67
  %70 = trunc i64 %68 to i32
  call void @_ZN3emp7IntegerD1Ev(%"class.emp::Integer"* %19) #3
  store i32 %70, i32* %18, align 4
  %71 = load i32, i32* %12, align 4
  %72 = invoke i32 (i8*, ...) @printf(i8* getelementptr inbounds ([35 x i8], [35 x i8]* @.str.16, i32 0, i32 0), i8* getelementptr inbounds ([13 x i8], [13 x i8]* @__FUNCTION__._Z12TestBarAdd01RKN6sample3BarES2_, i32 0, i32 0), i32 %71)
          to label %73 unwind label %122

; <label>:73:                                     ; preds = %69
  %74 = invoke i8* @_Znwm(i64 40) #14
          to label %75 unwind label %122

; <label>:75:                                     ; preds = %73
  %76 = bitcast i8* %74 to %"class.sample::Foo"*
  invoke void @_ZN6sample3FooC1Ev(%"class.sample::Foo"* %76)
          to label %77 unwind label %130

; <label>:77:                                     ; preds = %75
  store %"class.sample::Foo"* %76, %"class.sample::Foo"** %20, align 8
  %78 = load %"class.sample::Foo"*, %"class.sample::Foo"** %20, align 8
  %79 = load i32, i32* %18, align 4
  invoke void @_ZN6sample3Foo7set_i32Ei(%"class.sample::Foo"* %78, i32 %79)
          to label %80 unwind label %122

; <label>:80:                                     ; preds = %77
  %81 = load %"class.sample::Foo"*, %"class.sample::Foo"** %20, align 8
  invoke void @_ZN6sample3Foo5set_fEf(%"class.sample::Foo"* %81, float 2.220000e+02)
          to label %82 unwind label %122

; <label>:82:                                     ; preds = %80
  %83 = load %"class.sample::Foo"*, %"class.sample::Foo"** %20, align 8
  %84 = load %"class.sample::Bar"*, %"class.sample::Bar"** %4, align 8
  %85 = invoke i32 @_ZNK6sample3Bar3i32Ev(%"class.sample::Bar"* %84)
          to label %86 unwind label %122

; <label>:86:                                     ; preds = %82
  invoke void @_ZSt9to_stringi(%"class.google::protobuf::internal::InternalMetadataWithArena"* sret %26, i32 %85)
          to label %87 unwind label %122

; <label>:87:                                     ; preds = %86
  invoke void @_ZStplIcSt11char_traitsIcESaIcEESbIT_T0_T1_EPKS3_OS6_(%"class.google::protobuf::internal::InternalMetadataWithArena"* sret %25, i8* getelementptr inbounds ([21 x i8], [21 x i8]* @.str.11, i32 0, i32 0), %"class.google::protobuf::internal::InternalMetadataWithArena"* dereferenceable(8) %26)
          to label %88 unwind label %134

; <label>:88:                                     ; preds = %87
  invoke void @_ZStplIcSt11char_traitsIcESaIcEESbIT_T0_T1_EOS6_PKS3_(%"class.google::protobuf::internal::InternalMetadataWithArena"* sret %24, %"class.google::protobuf::internal::InternalMetadataWithArena"* dereferenceable(8) %25, i8* getelementptr inbounds ([2 x i8], [2 x i8]* @.str.12, i32 0, i32 0))
          to label %89 unwind label %138

; <label>:89:                                     ; preds = %88
  %90 = load %"class.sample::Bar"*, %"class.sample::Bar"** %5, align 8
  %91 = invoke i32 @_ZNK6sample3Bar3i32Ev(%"class.sample::Bar"* %90)
          to label %92 unwind label %142

; <label>:92:                                     ; preds = %89
  invoke void @_ZSt9to_stringi(%"class.google::protobuf::internal::InternalMetadataWithArena"* sret %27, i32 %91)
          to label %93 unwind label %142

; <label>:93:                                     ; preds = %92
  invoke void @_ZStplIcSt11char_traitsIcESaIcEESbIT_T0_T1_EOS6_S7_(%"class.google::protobuf::internal::InternalMetadataWithArena"* sret %23, %"class.google::protobuf::internal::InternalMetadataWithArena"* dereferenceable(8) %24, %"class.google::protobuf::internal::InternalMetadataWithArena"* dereferenceable(8) %27)
          to label %94 unwind label %146

; <label>:94:                                     ; preds = %93
  invoke void @_ZStplIcSt11char_traitsIcESaIcEESbIT_T0_T1_EOS6_PKS3_(%"class.google::protobuf::internal::InternalMetadataWithArena"* sret %22, %"class.google::protobuf::internal::InternalMetadataWithArena"* dereferenceable(8) %23, i8* getelementptr inbounds ([2 x i8], [2 x i8]* @.str.13, i32 0, i32 0))
          to label %95 unwind label %150

; <label>:95:                                     ; preds = %94
  %96 = load i32, i32* %18, align 4
  invoke void @_ZSt9to_stringi(%"class.google::protobuf::internal::InternalMetadataWithArena"* sret %28, i32 %96)
          to label %97 unwind label %154

; <label>:97:                                     ; preds = %95
  invoke void @_ZStplIcSt11char_traitsIcESaIcEESbIT_T0_T1_EOS6_S7_(%"class.google::protobuf::internal::InternalMetadataWithArena"* sret %21, %"class.google::protobuf::internal::InternalMetadataWithArena"* dereferenceable(8) %22, %"class.google::protobuf::internal::InternalMetadataWithArena"* dereferenceable(8) %28)
          to label %98 unwind label %158

; <label>:98:                                     ; preds = %97
  invoke void @_ZN6sample3Foo5set_sEOSs(%"class.sample::Foo"* %83, %"class.google::protobuf::internal::InternalMetadataWithArena"* dereferenceable(8) %21)
          to label %99 unwind label %162

; <label>:99:                                     ; preds = %98
  call void @_ZNSsD1Ev(%"class.google::protobuf::internal::InternalMetadataWithArena"* %21) #3
  call void @_ZNSsD1Ev(%"class.google::protobuf::internal::InternalMetadataWithArena"* %28) #3
  call void @_ZNSsD1Ev(%"class.google::protobuf::internal::InternalMetadataWithArena"* %22) #3
  call void @_ZNSsD1Ev(%"class.google::protobuf::internal::InternalMetadataWithArena"* %23) #3
  call void @_ZNSsD1Ev(%"class.google::protobuf::internal::InternalMetadataWithArena"* %27) #3
  call void @_ZNSsD1Ev(%"class.google::protobuf::internal::InternalMetadataWithArena"* %24) #3
  call void @_ZNSsD1Ev(%"class.google::protobuf::internal::InternalMetadataWithArena"* %25) #3
  call void @_ZNSsD1Ev(%"class.google::protobuf::internal::InternalMetadataWithArena"* %26) #3
  store i1 false, i1* %29, align 1
  invoke void @_ZN6sample3BarC1Ev(%"class.sample::Bar"* %0)
          to label %100 unwind label %122

; <label>:100:                                    ; preds = %99
  %101 = load %"class.sample::Foo"*, %"class.sample::Foo"** %20, align 8
  invoke void @_ZN6sample3Bar17set_allocated_fooEPNS_3FooE(%"class.sample::Bar"* %0, %"class.sample::Foo"* %101)
          to label %102 unwind label %173

; <label>:102:                                    ; preds = %100
  %103 = load i32, i32* %12, align 4
  invoke void @_ZN6sample3Bar7set_i32Ei(%"class.sample::Bar"* %0, i32 %103)
          to label %104 unwind label %173

; <label>:104:                                    ; preds = %102
  store i1 true, i1* %29, align 1
  %105 = load i1, i1* %29, align 1
  br i1 %105, label %178, label %177

; <label>:106:                                    ; preds = %46, %3
  %107 = landingpad { i8*, i32 }
          cleanup
  %108 = extractvalue { i8*, i32 } %107, 0
  store i8* %108, i8** %10, align 8
  %109 = extractvalue { i8*, i32 } %107, 1
  store i32 %109, i32* %11, align 4
  br label %182

; <label>:110:                                    ; preds = %59, %57, %54, %50, %47
  %111 = landingpad { i8*, i32 }
          cleanup
  %112 = extractvalue { i8*, i32 } %111, 0
  store i8* %112, i8** %10, align 8
  %113 = extractvalue { i8*, i32 } %111, 1
  store i32 %113, i32* %11, align 4
  br label %181

; <label>:114:                                    ; preds = %48
  %115 = landingpad { i8*, i32 }
          cleanup
  %116 = extractvalue { i8*, i32 } %115, 0
  store i8* %116, i8** %10, align 8
  %117 = extractvalue { i8*, i32 } %115, 1
  store i32 %117, i32* %11, align 4
  call void @_ZN3emp7IntegerD1Ev(%"class.emp::Integer"* %13) #3
  br label %181

; <label>:118:                                    ; preds = %65, %63, %60
  %119 = landingpad { i8*, i32 }
          cleanup
  %120 = extractvalue { i8*, i32 } %119, 0
  store i8* %120, i8** %10, align 8
  %121 = extractvalue { i8*, i32 } %119, 1
  store i32 %121, i32* %11, align 4
  br label %180

; <label>:122:                                    ; preds = %99, %86, %82, %80, %77, %73, %69, %66
  %123 = landingpad { i8*, i32 }
          cleanup
  %124 = extractvalue { i8*, i32 } %123, 0
  store i8* %124, i8** %10, align 8
  %125 = extractvalue { i8*, i32 } %123, 1
  store i32 %125, i32* %11, align 4
  br label %179

; <label>:126:                                    ; preds = %67
  %127 = landingpad { i8*, i32 }
          cleanup
  %128 = extractvalue { i8*, i32 } %127, 0
  store i8* %128, i8** %10, align 8
  %129 = extractvalue { i8*, i32 } %127, 1
  store i32 %129, i32* %11, align 4
  call void @_ZN3emp7IntegerD1Ev(%"class.emp::Integer"* %19) #3
  br label %179

; <label>:130:                                    ; preds = %75
  %131 = landingpad { i8*, i32 }
          cleanup
  %132 = extractvalue { i8*, i32 } %131, 0
  store i8* %132, i8** %10, align 8
  %133 = extractvalue { i8*, i32 } %131, 1
  store i32 %133, i32* %11, align 4
  call void @_ZdlPv(i8* %74) #15
  br label %179

; <label>:134:                                    ; preds = %87
  %135 = landingpad { i8*, i32 }
          cleanup
  %136 = extractvalue { i8*, i32 } %135, 0
  store i8* %136, i8** %10, align 8
  %137 = extractvalue { i8*, i32 } %135, 1
  store i32 %137, i32* %11, align 4
  br label %172

; <label>:138:                                    ; preds = %88
  %139 = landingpad { i8*, i32 }
          cleanup
  %140 = extractvalue { i8*, i32 } %139, 0
  store i8* %140, i8** %10, align 8
  %141 = extractvalue { i8*, i32 } %139, 1
  store i32 %141, i32* %11, align 4
  br label %171

; <label>:142:                                    ; preds = %92, %89
  %143 = landingpad { i8*, i32 }
          cleanup
  %144 = extractvalue { i8*, i32 } %143, 0
  store i8* %144, i8** %10, align 8
  %145 = extractvalue { i8*, i32 } %143, 1
  store i32 %145, i32* %11, align 4
  br label %170

; <label>:146:                                    ; preds = %93
  %147 = landingpad { i8*, i32 }
          cleanup
  %148 = extractvalue { i8*, i32 } %147, 0
  store i8* %148, i8** %10, align 8
  %149 = extractvalue { i8*, i32 } %147, 1
  store i32 %149, i32* %11, align 4
  br label %169

; <label>:150:                                    ; preds = %94
  %151 = landingpad { i8*, i32 }
          cleanup
  %152 = extractvalue { i8*, i32 } %151, 0
  store i8* %152, i8** %10, align 8
  %153 = extractvalue { i8*, i32 } %151, 1
  store i32 %153, i32* %11, align 4
  br label %168

; <label>:154:                                    ; preds = %95
  %155 = landingpad { i8*, i32 }
          cleanup
  %156 = extractvalue { i8*, i32 } %155, 0
  store i8* %156, i8** %10, align 8
  %157 = extractvalue { i8*, i32 } %155, 1
  store i32 %157, i32* %11, align 4
  br label %167

; <label>:158:                                    ; preds = %97
  %159 = landingpad { i8*, i32 }
          cleanup
  %160 = extractvalue { i8*, i32 } %159, 0
  store i8* %160, i8** %10, align 8
  %161 = extractvalue { i8*, i32 } %159, 1
  store i32 %161, i32* %11, align 4
  br label %166

; <label>:162:                                    ; preds = %98
  %163 = landingpad { i8*, i32 }
          cleanup
  %164 = extractvalue { i8*, i32 } %163, 0
  store i8* %164, i8** %10, align 8
  %165 = extractvalue { i8*, i32 } %163, 1
  store i32 %165, i32* %11, align 4
  call void @_ZNSsD1Ev(%"class.google::protobuf::internal::InternalMetadataWithArena"* %21) #3
  br label %166

; <label>:166:                                    ; preds = %162, %158
  call void @_ZNSsD1Ev(%"class.google::protobuf::internal::InternalMetadataWithArena"* %28) #3
  br label %167

; <label>:167:                                    ; preds = %166, %154
  call void @_ZNSsD1Ev(%"class.google::protobuf::internal::InternalMetadataWithArena"* %22) #3
  br label %168

; <label>:168:                                    ; preds = %167, %150
  call void @_ZNSsD1Ev(%"class.google::protobuf::internal::InternalMetadataWithArena"* %23) #3
  br label %169

; <label>:169:                                    ; preds = %168, %146
  call void @_ZNSsD1Ev(%"class.google::protobuf::internal::InternalMetadataWithArena"* %27) #3
  br label %170

; <label>:170:                                    ; preds = %169, %142
  call void @_ZNSsD1Ev(%"class.google::protobuf::internal::InternalMetadataWithArena"* %24) #3
  br label %171

; <label>:171:                                    ; preds = %170, %138
  call void @_ZNSsD1Ev(%"class.google::protobuf::internal::InternalMetadataWithArena"* %25) #3
  br label %172

; <label>:172:                                    ; preds = %171, %134
  call void @_ZNSsD1Ev(%"class.google::protobuf::internal::InternalMetadataWithArena"* %26) #3
  br label %179

; <label>:173:                                    ; preds = %102, %100
  %174 = landingpad { i8*, i32 }
          cleanup
  %175 = extractvalue { i8*, i32 } %174, 0
  store i8* %175, i8** %10, align 8
  %176 = extractvalue { i8*, i32 } %174, 1
  store i32 %176, i32* %11, align 4
  call void @_ZN6sample3BarD1Ev(%"class.sample::Bar"* %0) #3
  br label %179

; <label>:177:                                    ; preds = %104
  call void @_ZN6sample3BarD1Ev(%"class.sample::Bar"* %0) #3
  br label %178

; <label>:178:                                    ; preds = %177, %104
  call void @_ZN3emp7IntegerD1Ev(%"class.emp::Integer"* %16) #3
  call void @_ZN3emp7IntegerD1Ev(%"class.emp::Integer"* %14) #3
  call void @_ZN3emp7IntegerD1Ev(%"class.emp::Integer"* %8) #3
  call void @_ZN3emp7IntegerD1Ev(%"class.emp::Integer"* %6) #3
  ret void

; <label>:179:                                    ; preds = %173, %172, %130, %126, %122
  call void @_ZN3emp7IntegerD1Ev(%"class.emp::Integer"* %16) #3
  br label %180

; <label>:180:                                    ; preds = %179, %118
  call void @_ZN3emp7IntegerD1Ev(%"class.emp::Integer"* %14) #3
  br label %181

; <label>:181:                                    ; preds = %180, %114, %110
  call void @_ZN3emp7IntegerD1Ev(%"class.emp::Integer"* %8) #3
  br label %182

; <label>:182:                                    ; preds = %181, %106
  call void @_ZN3emp7IntegerD1Ev(%"class.emp::Integer"* %6) #3
  br label %183

; <label>:183:                                    ; preds = %182
  %184 = load i8*, i8** %10, align 8
  %185 = load i32, i32* %11, align 4
  %186 = insertvalue { i8*, i32 } undef, i8* %184, 0
  %187 = insertvalue { i8*, i32 } %186, i32 %185, 1
  resume { i8*, i32 } %187
}

; Function Attrs: noinline nounwind optnone uwtable
define linkonce_odr i32 @_ZNK6sample3Bar3i32Ev(%"class.sample::Bar"*) #5 comdat align 2 {
  %2 = alloca %"class.sample::Bar"*, align 8
  store %"class.sample::Bar"* %0, %"class.sample::Bar"** %2, align 8
  %3 = load %"class.sample::Bar"*, %"class.sample::Bar"** %2, align 8
  %4 = getelementptr inbounds %"class.sample::Bar", %"class.sample::Bar"* %3, i32 0, i32 3
  %5 = load i32, i32* %4, align 8
  ret i32 %5
}

; Function Attrs: noinline nounwind optnone uwtable
define linkonce_odr dereferenceable(40) %"class.sample::Foo"* @_ZNK6sample3Bar3fooEv(%"class.sample::Bar"*) #5 comdat align 2 {
  %2 = alloca %"class.sample::Bar"*, align 8
  %3 = alloca %"class.sample::Foo"*, align 8
  store %"class.sample::Bar"* %0, %"class.sample::Bar"** %2, align 8
  %4 = load %"class.sample::Bar"*, %"class.sample::Bar"** %2, align 8
  %5 = getelementptr inbounds %"class.sample::Bar", %"class.sample::Bar"* %4, i32 0, i32 2
  %6 = load %"class.sample::Foo"*, %"class.sample::Foo"** %5, align 8
  store %"class.sample::Foo"* %6, %"class.sample::Foo"** %3, align 8
  %7 = load %"class.sample::Foo"*, %"class.sample::Foo"** %3, align 8
  %8 = icmp ne %"class.sample::Foo"* %7, null
  br i1 %8, label %9, label %11

; <label>:9:                                      ; preds = %1
  %10 = load %"class.sample::Foo"*, %"class.sample::Foo"** %3, align 8
  br label %12

; <label>:11:                                     ; preds = %1
  br label %12

; <label>:12:                                     ; preds = %11, %9
  %13 = phi %"class.sample::Foo"* [ %10, %9 ], [ bitcast (%"class.sample::FooDefaultTypeInternal"* @_ZN6sample22_Foo_default_instance_E to %"class.sample::Foo"*), %11 ]
  ret %"class.sample::Foo"* %13
}

; Function Attrs: noinline optnone uwtable
define linkonce_odr void @_ZN6sample3Bar17set_allocated_fooEPNS_3FooE(%"class.sample::Bar"*, %"class.sample::Foo"*) #4 comdat align 2 {
  %3 = alloca %"class.sample::Bar"*, align 8
  %4 = alloca %"class.sample::Foo"*, align 8
  %5 = alloca %"class.google::protobuf::Arena"*, align 8
  %6 = alloca %"class.google::protobuf::Arena"*, align 8
  store %"class.sample::Bar"* %0, %"class.sample::Bar"** %3, align 8
  store %"class.sample::Foo"* %1, %"class.sample::Foo"** %4, align 8
  %7 = load %"class.sample::Bar"*, %"class.sample::Bar"** %3, align 8
  %8 = call %"class.google::protobuf::Arena"* @_ZNK6sample3Bar17GetArenaNoVirtualEv(%"class.sample::Bar"* %7)
  store %"class.google::protobuf::Arena"* %8, %"class.google::protobuf::Arena"** %5, align 8
  %9 = load %"class.google::protobuf::Arena"*, %"class.google::protobuf::Arena"** %5, align 8
  %10 = icmp eq %"class.google::protobuf::Arena"* %9, null
  br i1 %10, label %11, label %21

; <label>:11:                                     ; preds = %2
  %12 = getelementptr inbounds %"class.sample::Bar", %"class.sample::Bar"* %7, i32 0, i32 2
  %13 = load %"class.sample::Foo"*, %"class.sample::Foo"** %12, align 8
  %14 = icmp eq %"class.sample::Foo"* %13, null
  br i1 %14, label %20, label %15

; <label>:15:                                     ; preds = %11
  %16 = bitcast %"class.sample::Foo"* %13 to void (%"class.sample::Foo"*)***
  %17 = load void (%"class.sample::Foo"*)**, void (%"class.sample::Foo"*)*** %16, align 8
  %18 = getelementptr inbounds void (%"class.sample::Foo"*)*, void (%"class.sample::Foo"*)** %17, i64 1
  %19 = load void (%"class.sample::Foo"*)*, void (%"class.sample::Foo"*)** %18, align 8
  call void %19(%"class.sample::Foo"* %13) #3
  br label %20

; <label>:20:                                     ; preds = %15, %11
  br label %21

; <label>:21:                                     ; preds = %20, %2
  %22 = load %"class.sample::Foo"*, %"class.sample::Foo"** %4, align 8
  %23 = icmp ne %"class.sample::Foo"* %22, null
  br i1 %23, label %24, label %34

; <label>:24:                                     ; preds = %21
  store %"class.google::protobuf::Arena"* null, %"class.google::protobuf::Arena"** %6, align 8
  %25 = load %"class.google::protobuf::Arena"*, %"class.google::protobuf::Arena"** %5, align 8
  %26 = load %"class.google::protobuf::Arena"*, %"class.google::protobuf::Arena"** %6, align 8
  %27 = icmp ne %"class.google::protobuf::Arena"* %25, %26
  br i1 %27, label %28, label %33

; <label>:28:                                     ; preds = %24
  %29 = load %"class.google::protobuf::Arena"*, %"class.google::protobuf::Arena"** %5, align 8
  %30 = load %"class.sample::Foo"*, %"class.sample::Foo"** %4, align 8
  %31 = load %"class.google::protobuf::Arena"*, %"class.google::protobuf::Arena"** %6, align 8
  %32 = call %"class.sample::Foo"* @_ZN6google8protobuf8internal15GetOwnedMessageIN6sample3FooEEEPT_PNS0_5ArenaES6_S8_(%"class.google::protobuf::Arena"* %29, %"class.sample::Foo"* %30, %"class.google::protobuf::Arena"* %31)
  store %"class.sample::Foo"* %32, %"class.sample::Foo"** %4, align 8
  br label %33

; <label>:33:                                     ; preds = %28, %24
  br label %35

; <label>:34:                                     ; preds = %21
  br label %35

; <label>:35:                                     ; preds = %34, %33
  %36 = load %"class.sample::Foo"*, %"class.sample::Foo"** %4, align 8
  %37 = getelementptr inbounds %"class.sample::Bar", %"class.sample::Bar"* %7, i32 0, i32 2
  store %"class.sample::Foo"* %36, %"class.sample::Foo"** %37, align 8
  ret void
}

; Function Attrs: noinline nounwind optnone uwtable
define linkonce_odr void @_ZN6sample3Bar7set_i32Ei(%"class.sample::Bar"*, i32) #5 comdat align 2 {
  %3 = alloca %"class.sample::Bar"*, align 8
  %4 = alloca i32, align 4
  store %"class.sample::Bar"* %0, %"class.sample::Bar"** %3, align 8
  store i32 %1, i32* %4, align 4
  %5 = load %"class.sample::Bar"*, %"class.sample::Bar"** %3, align 8
  %6 = load i32, i32* %4, align 4
  %7 = getelementptr inbounds %"class.sample::Bar", %"class.sample::Bar"* %5, i32 0, i32 3
  store i32 %6, i32* %7, align 8
  ret void
}

; Function Attrs: nobuiltin nounwind
declare void @_ZdlPv(i8*) #8

; Function Attrs: noinline nounwind optnone uwtable
define linkonce_odr %"class.google::protobuf::Arena"* @_ZNK6sample3Bar17GetArenaNoVirtualEv(%"class.sample::Bar"*) #5 comdat align 2 {
  %2 = alloca %"class.sample::Bar"*, align 8
  store %"class.sample::Bar"* %0, %"class.sample::Bar"** %2, align 8
  %3 = load %"class.sample::Bar"*, %"class.sample::Bar"** %2, align 8
  ret %"class.google::protobuf::Arena"* null
}

; Function Attrs: noinline optnone uwtable
define linkonce_odr %"class.sample::Foo"* @_ZN6google8protobuf8internal15GetOwnedMessageIN6sample3FooEEEPT_PNS0_5ArenaES6_S8_(%"class.google::protobuf::Arena"*, %"class.sample::Foo"*, %"class.google::protobuf::Arena"*) #4 comdat {
  %4 = alloca %"class.google::protobuf::Arena"*, align 8
  %5 = alloca %"class.sample::Foo"*, align 8
  %6 = alloca %"class.google::protobuf::Arena"*, align 8
  store %"class.google::protobuf::Arena"* %0, %"class.google::protobuf::Arena"** %4, align 8
  store %"class.sample::Foo"* %1, %"class.sample::Foo"** %5, align 8
  store %"class.google::protobuf::Arena"* %2, %"class.google::protobuf::Arena"** %6, align 8
  %7 = load %"class.google::protobuf::Arena"*, %"class.google::protobuf::Arena"** %4, align 8
  %8 = load %"class.sample::Foo"*, %"class.sample::Foo"** %5, align 8
  %9 = bitcast %"class.sample::Foo"* %8 to %"class.google::protobuf::MessageLite"*
  %10 = load %"class.google::protobuf::Arena"*, %"class.google::protobuf::Arena"** %6, align 8
  %11 = call %"class.google::protobuf::MessageLite"* @_ZN6google8protobuf8internal23GetOwnedMessageInternalEPNS0_5ArenaEPNS0_11MessageLiteES3_(%"class.google::protobuf::Arena"* %7, %"class.google::protobuf::MessageLite"* %9, %"class.google::protobuf::Arena"* %10)
  %12 = bitcast %"class.google::protobuf::MessageLite"* %11 to %"class.sample::Foo"*
  ret %"class.sample::Foo"* %12
}

declare %"class.google::protobuf::MessageLite"* @_ZN6google8protobuf8internal23GetOwnedMessageInternalEPNS0_5ArenaEPNS0_11MessageLiteES3_(%"class.google::protobuf::Arena"*, %"class.google::protobuf::MessageLite"*, %"class.google::protobuf::Arena"*) #1

; Function Attrs: noinline optnone uwtable
define void @_Z12TestBarAdd02RKN6sample3FooES2_(%"class.sample::Bar"* noalias sret, %"class.sample::Foo"* dereferenceable(40), %"class.sample::Foo"* dereferenceable(40)) #4 personality i8* bitcast (i32 (...)* @__gxx_personality_v0 to i8*) {
  %4 = alloca %"class.sample::Foo"*, align 8
  %5 = alloca %"class.sample::Foo"*, align 8
  %6 = alloca %"class.emp::Integer", align 8
  %7 = alloca i32, align 4
  %8 = alloca %"class.emp::Integer", align 8
  %9 = alloca i32, align 4
  %10 = alloca i8*
  %11 = alloca i32
  %12 = alloca i32, align 4
  %13 = alloca %"class.emp::Integer", align 8
  %14 = alloca %"class.sample::Foo"*, align 8
  %15 = alloca %"class.google::protobuf::internal::InternalMetadataWithArena", align 8
  %16 = alloca %"class.google::protobuf::internal::InternalMetadataWithArena", align 8
  %17 = alloca %"class.google::protobuf::internal::InternalMetadataWithArena", align 8
  %18 = alloca %"class.google::protobuf::internal::InternalMetadataWithArena", align 8
  %19 = alloca %"class.google::protobuf::internal::InternalMetadataWithArena", align 8
  %20 = alloca %"class.google::protobuf::internal::InternalMetadataWithArena", align 8
  %21 = alloca %"class.google::protobuf::internal::InternalMetadataWithArena", align 8
  %22 = alloca %"class.google::protobuf::internal::InternalMetadataWithArena", align 8
  %23 = alloca i1, align 1
  store %"class.sample::Foo"* %1, %"class.sample::Foo"** %4, align 8
  store %"class.sample::Foo"* %2, %"class.sample::Foo"** %5, align 8
  %24 = load %"class.sample::Foo"*, %"class.sample::Foo"** %4, align 8
  %25 = call i32 @_ZNK6sample3Foo3i32Ev(%"class.sample::Foo"* %24)
  %26 = load %"class.sample::Foo"*, %"class.sample::Foo"** %5, align 8
  %27 = call i32 @_ZNK6sample3Foo3i32Ev(%"class.sample::Foo"* %26)
  %28 = call i32 (i8*, ...) @printf(i8* getelementptr inbounds ([22 x i8], [22 x i8]* @.str, i32 0, i32 0), i8* getelementptr inbounds ([13 x i8], [13 x i8]* @__FUNCTION__._Z12TestBarAdd02RKN6sample3FooES2_, i32 0, i32 0), i32 %25, i32 %27)
  %29 = load %"class.sample::Foo"*, %"class.sample::Foo"** %4, align 8
  %30 = call i32 @_ZNK6sample3Foo3i32Ev(%"class.sample::Foo"* %29)
  store i32 %30, i32* %7, align 4
  call void @_ZN3emp7IntegerC1ERKii(%"class.emp::Integer"* %6, i32* dereferenceable(4) %7, i32 1)
  %31 = load %"class.sample::Foo"*, %"class.sample::Foo"** %5, align 8
  %32 = invoke i32 @_ZNK6sample3Foo3i32Ev(%"class.sample::Foo"* %31)
          to label %33 unwind label %74

; <label>:33:                                     ; preds = %3
  store i32 %32, i32* %9, align 4
  invoke void @_ZN3emp7IntegerC1ERKii(%"class.emp::Integer"* %8, i32* dereferenceable(4) %9, i32 2)
          to label %34 unwind label %74

; <label>:34:                                     ; preds = %33
  invoke void @_ZNK3emp7IntegerplERKS0_(%"class.emp::Integer"* sret %13, %"class.emp::Integer"* %6, %"class.emp::Integer"* dereferenceable(16) %8)
          to label %35 unwind label %78

; <label>:35:                                     ; preds = %34
  %36 = invoke i64 @_ZNK3emp7Integer10reveal_intEi(%"class.emp::Integer"* %13, i32 0)
          to label %37 unwind label %82

; <label>:37:                                     ; preds = %35
  %38 = trunc i64 %36 to i32
  call void @_ZN3emp7IntegerD1Ev(%"class.emp::Integer"* %13) #3
  store i32 %38, i32* %12, align 4
  %39 = load i32, i32* %12, align 4
  %40 = invoke i32 (i8*, ...) @printf(i8* getelementptr inbounds ([27 x i8], [27 x i8]* @.str.5, i32 0, i32 0), i8* getelementptr inbounds ([13 x i8], [13 x i8]* @__FUNCTION__._Z12TestBarAdd02RKN6sample3FooES2_, i32 0, i32 0), i32 %39)
          to label %41 unwind label %78

; <label>:41:                                     ; preds = %37
  %42 = invoke i8* @_Znwm(i64 40) #14
          to label %43 unwind label %78

; <label>:43:                                     ; preds = %41
  %44 = bitcast i8* %42 to %"class.sample::Foo"*
  invoke void @_ZN6sample3FooC1Ev(%"class.sample::Foo"* %44)
          to label %45 unwind label %86

; <label>:45:                                     ; preds = %43
  store %"class.sample::Foo"* %44, %"class.sample::Foo"** %14, align 8
  %46 = load %"class.sample::Foo"*, %"class.sample::Foo"** %14, align 8
  %47 = load i32, i32* %12, align 4
  invoke void @_ZN6sample3Foo7set_i32Ei(%"class.sample::Foo"* %46, i32 %47)
          to label %48 unwind label %78

; <label>:48:                                     ; preds = %45
  %49 = load %"class.sample::Foo"*, %"class.sample::Foo"** %14, align 8
  invoke void @_ZN6sample3Foo5set_fEf(%"class.sample::Foo"* %49, float 2.220000e+02)
          to label %50 unwind label %78

; <label>:50:                                     ; preds = %48
  %51 = load %"class.sample::Foo"*, %"class.sample::Foo"** %14, align 8
  %52 = load %"class.sample::Foo"*, %"class.sample::Foo"** %4, align 8
  %53 = invoke i32 @_ZNK6sample3Foo3i32Ev(%"class.sample::Foo"* %52)
          to label %54 unwind label %78

; <label>:54:                                     ; preds = %50
  invoke void @_ZSt9to_stringi(%"class.google::protobuf::internal::InternalMetadataWithArena"* sret %20, i32 %53)
          to label %55 unwind label %78

; <label>:55:                                     ; preds = %54
  invoke void @_ZStplIcSt11char_traitsIcESaIcEESbIT_T0_T1_EPKS3_OS6_(%"class.google::protobuf::internal::InternalMetadataWithArena"* sret %19, i8* getelementptr inbounds ([21 x i8], [21 x i8]* @.str.11, i32 0, i32 0), %"class.google::protobuf::internal::InternalMetadataWithArena"* dereferenceable(8) %20)
          to label %56 unwind label %90

; <label>:56:                                     ; preds = %55
  invoke void @_ZStplIcSt11char_traitsIcESaIcEESbIT_T0_T1_EOS6_PKS3_(%"class.google::protobuf::internal::InternalMetadataWithArena"* sret %18, %"class.google::protobuf::internal::InternalMetadataWithArena"* dereferenceable(8) %19, i8* getelementptr inbounds ([2 x i8], [2 x i8]* @.str.12, i32 0, i32 0))
          to label %57 unwind label %94

; <label>:57:                                     ; preds = %56
  %58 = load %"class.sample::Foo"*, %"class.sample::Foo"** %5, align 8
  %59 = invoke i32 @_ZNK6sample3Foo3i32Ev(%"class.sample::Foo"* %58)
          to label %60 unwind label %98

; <label>:60:                                     ; preds = %57
  invoke void @_ZSt9to_stringi(%"class.google::protobuf::internal::InternalMetadataWithArena"* sret %21, i32 %59)
          to label %61 unwind label %98

; <label>:61:                                     ; preds = %60
  invoke void @_ZStplIcSt11char_traitsIcESaIcEESbIT_T0_T1_EOS6_S7_(%"class.google::protobuf::internal::InternalMetadataWithArena"* sret %17, %"class.google::protobuf::internal::InternalMetadataWithArena"* dereferenceable(8) %18, %"class.google::protobuf::internal::InternalMetadataWithArena"* dereferenceable(8) %21)
          to label %62 unwind label %102

; <label>:62:                                     ; preds = %61
  invoke void @_ZStplIcSt11char_traitsIcESaIcEESbIT_T0_T1_EOS6_PKS3_(%"class.google::protobuf::internal::InternalMetadataWithArena"* sret %16, %"class.google::protobuf::internal::InternalMetadataWithArena"* dereferenceable(8) %17, i8* getelementptr inbounds ([2 x i8], [2 x i8]* @.str.13, i32 0, i32 0))
          to label %63 unwind label %106

; <label>:63:                                     ; preds = %62
  %64 = load i32, i32* %12, align 4
  invoke void @_ZSt9to_stringi(%"class.google::protobuf::internal::InternalMetadataWithArena"* sret %22, i32 %64)
          to label %65 unwind label %110

; <label>:65:                                     ; preds = %63
  invoke void @_ZStplIcSt11char_traitsIcESaIcEESbIT_T0_T1_EOS6_S7_(%"class.google::protobuf::internal::InternalMetadataWithArena"* sret %15, %"class.google::protobuf::internal::InternalMetadataWithArena"* dereferenceable(8) %16, %"class.google::protobuf::internal::InternalMetadataWithArena"* dereferenceable(8) %22)
          to label %66 unwind label %114

; <label>:66:                                     ; preds = %65
  invoke void @_ZN6sample3Foo5set_sEOSs(%"class.sample::Foo"* %51, %"class.google::protobuf::internal::InternalMetadataWithArena"* dereferenceable(8) %15)
          to label %67 unwind label %118

; <label>:67:                                     ; preds = %66
  call void @_ZNSsD1Ev(%"class.google::protobuf::internal::InternalMetadataWithArena"* %15) #3
  call void @_ZNSsD1Ev(%"class.google::protobuf::internal::InternalMetadataWithArena"* %22) #3
  call void @_ZNSsD1Ev(%"class.google::protobuf::internal::InternalMetadataWithArena"* %16) #3
  call void @_ZNSsD1Ev(%"class.google::protobuf::internal::InternalMetadataWithArena"* %17) #3
  call void @_ZNSsD1Ev(%"class.google::protobuf::internal::InternalMetadataWithArena"* %21) #3
  call void @_ZNSsD1Ev(%"class.google::protobuf::internal::InternalMetadataWithArena"* %18) #3
  call void @_ZNSsD1Ev(%"class.google::protobuf::internal::InternalMetadataWithArena"* %19) #3
  call void @_ZNSsD1Ev(%"class.google::protobuf::internal::InternalMetadataWithArena"* %20) #3
  store i1 false, i1* %23, align 1
  invoke void @_ZN6sample3BarC1Ev(%"class.sample::Bar"* %0)
          to label %68 unwind label %78

; <label>:68:                                     ; preds = %67
  %69 = load %"class.sample::Foo"*, %"class.sample::Foo"** %14, align 8
  invoke void @_ZN6sample3Bar17set_allocated_fooEPNS_3FooE(%"class.sample::Bar"* %0, %"class.sample::Foo"* %69)
          to label %70 unwind label %129

; <label>:70:                                     ; preds = %68
  %71 = load i32, i32* %12, align 4
  invoke void @_ZN6sample3Bar7set_i32Ei(%"class.sample::Bar"* %0, i32 %71)
          to label %72 unwind label %129

; <label>:72:                                     ; preds = %70
  store i1 true, i1* %23, align 1
  %73 = load i1, i1* %23, align 1
  br i1 %73, label %134, label %133

; <label>:74:                                     ; preds = %33, %3
  %75 = landingpad { i8*, i32 }
          cleanup
  %76 = extractvalue { i8*, i32 } %75, 0
  store i8* %76, i8** %10, align 8
  %77 = extractvalue { i8*, i32 } %75, 1
  store i32 %77, i32* %11, align 4
  br label %136

; <label>:78:                                     ; preds = %67, %54, %50, %48, %45, %41, %37, %34
  %79 = landingpad { i8*, i32 }
          cleanup
  %80 = extractvalue { i8*, i32 } %79, 0
  store i8* %80, i8** %10, align 8
  %81 = extractvalue { i8*, i32 } %79, 1
  store i32 %81, i32* %11, align 4
  br label %135

; <label>:82:                                     ; preds = %35
  %83 = landingpad { i8*, i32 }
          cleanup
  %84 = extractvalue { i8*, i32 } %83, 0
  store i8* %84, i8** %10, align 8
  %85 = extractvalue { i8*, i32 } %83, 1
  store i32 %85, i32* %11, align 4
  call void @_ZN3emp7IntegerD1Ev(%"class.emp::Integer"* %13) #3
  br label %135

; <label>:86:                                     ; preds = %43
  %87 = landingpad { i8*, i32 }
          cleanup
  %88 = extractvalue { i8*, i32 } %87, 0
  store i8* %88, i8** %10, align 8
  %89 = extractvalue { i8*, i32 } %87, 1
  store i32 %89, i32* %11, align 4
  call void @_ZdlPv(i8* %42) #15
  br label %135

; <label>:90:                                     ; preds = %55
  %91 = landingpad { i8*, i32 }
          cleanup
  %92 = extractvalue { i8*, i32 } %91, 0
  store i8* %92, i8** %10, align 8
  %93 = extractvalue { i8*, i32 } %91, 1
  store i32 %93, i32* %11, align 4
  br label %128

; <label>:94:                                     ; preds = %56
  %95 = landingpad { i8*, i32 }
          cleanup
  %96 = extractvalue { i8*, i32 } %95, 0
  store i8* %96, i8** %10, align 8
  %97 = extractvalue { i8*, i32 } %95, 1
  store i32 %97, i32* %11, align 4
  br label %127

; <label>:98:                                     ; preds = %60, %57
  %99 = landingpad { i8*, i32 }
          cleanup
  %100 = extractvalue { i8*, i32 } %99, 0
  store i8* %100, i8** %10, align 8
  %101 = extractvalue { i8*, i32 } %99, 1
  store i32 %101, i32* %11, align 4
  br label %126

; <label>:102:                                    ; preds = %61
  %103 = landingpad { i8*, i32 }
          cleanup
  %104 = extractvalue { i8*, i32 } %103, 0
  store i8* %104, i8** %10, align 8
  %105 = extractvalue { i8*, i32 } %103, 1
  store i32 %105, i32* %11, align 4
  br label %125

; <label>:106:                                    ; preds = %62
  %107 = landingpad { i8*, i32 }
          cleanup
  %108 = extractvalue { i8*, i32 } %107, 0
  store i8* %108, i8** %10, align 8
  %109 = extractvalue { i8*, i32 } %107, 1
  store i32 %109, i32* %11, align 4
  br label %124

; <label>:110:                                    ; preds = %63
  %111 = landingpad { i8*, i32 }
          cleanup
  %112 = extractvalue { i8*, i32 } %111, 0
  store i8* %112, i8** %10, align 8
  %113 = extractvalue { i8*, i32 } %111, 1
  store i32 %113, i32* %11, align 4
  br label %123

; <label>:114:                                    ; preds = %65
  %115 = landingpad { i8*, i32 }
          cleanup
  %116 = extractvalue { i8*, i32 } %115, 0
  store i8* %116, i8** %10, align 8
  %117 = extractvalue { i8*, i32 } %115, 1
  store i32 %117, i32* %11, align 4
  br label %122

; <label>:118:                                    ; preds = %66
  %119 = landingpad { i8*, i32 }
          cleanup
  %120 = extractvalue { i8*, i32 } %119, 0
  store i8* %120, i8** %10, align 8
  %121 = extractvalue { i8*, i32 } %119, 1
  store i32 %121, i32* %11, align 4
  call void @_ZNSsD1Ev(%"class.google::protobuf::internal::InternalMetadataWithArena"* %15) #3
  br label %122

; <label>:122:                                    ; preds = %118, %114
  call void @_ZNSsD1Ev(%"class.google::protobuf::internal::InternalMetadataWithArena"* %22) #3
  br label %123

; <label>:123:                                    ; preds = %122, %110
  call void @_ZNSsD1Ev(%"class.google::protobuf::internal::InternalMetadataWithArena"* %16) #3
  br label %124

; <label>:124:                                    ; preds = %123, %106
  call void @_ZNSsD1Ev(%"class.google::protobuf::internal::InternalMetadataWithArena"* %17) #3
  br label %125

; <label>:125:                                    ; preds = %124, %102
  call void @_ZNSsD1Ev(%"class.google::protobuf::internal::InternalMetadataWithArena"* %21) #3
  br label %126

; <label>:126:                                    ; preds = %125, %98
  call void @_ZNSsD1Ev(%"class.google::protobuf::internal::InternalMetadataWithArena"* %18) #3
  br label %127

; <label>:127:                                    ; preds = %126, %94
  call void @_ZNSsD1Ev(%"class.google::protobuf::internal::InternalMetadataWithArena"* %19) #3
  br label %128

; <label>:128:                                    ; preds = %127, %90
  call void @_ZNSsD1Ev(%"class.google::protobuf::internal::InternalMetadataWithArena"* %20) #3
  br label %135

; <label>:129:                                    ; preds = %70, %68
  %130 = landingpad { i8*, i32 }
          cleanup
  %131 = extractvalue { i8*, i32 } %130, 0
  store i8* %131, i8** %10, align 8
  %132 = extractvalue { i8*, i32 } %130, 1
  store i32 %132, i32* %11, align 4
  call void @_ZN6sample3BarD1Ev(%"class.sample::Bar"* %0) #3
  br label %135

; <label>:133:                                    ; preds = %72
  call void @_ZN6sample3BarD1Ev(%"class.sample::Bar"* %0) #3
  br label %134

; <label>:134:                                    ; preds = %133, %72
  call void @_ZN3emp7IntegerD1Ev(%"class.emp::Integer"* %8) #3
  call void @_ZN3emp7IntegerD1Ev(%"class.emp::Integer"* %6) #3
  ret void

; <label>:135:                                    ; preds = %129, %128, %86, %82, %78
  call void @_ZN3emp7IntegerD1Ev(%"class.emp::Integer"* %8) #3
  br label %136

; <label>:136:                                    ; preds = %135, %74
  call void @_ZN3emp7IntegerD1Ev(%"class.emp::Integer"* %6) #3
  br label %137

; <label>:137:                                    ; preds = %136
  %138 = load i8*, i8** %10, align 8
  %139 = load i32, i32* %11, align 4
  %140 = insertvalue { i8*, i32 } undef, i8* %138, 0
  %141 = insertvalue { i8*, i32 } %140, i32 %139, 1
  resume { i8*, i32 } %141
}

; Function Attrs: noinline optnone uwtable
define void @_Z12ReturnPointsii(%"class.sample::Points"* noalias sret, i32, i32) #4 personality i8* bitcast (i32 (...)* @__gxx_personality_v0 to i8*) {
  %4 = alloca i32, align 4
  %5 = alloca i32, align 4
  %6 = alloca i1, align 1
  %7 = alloca %"class.sample::Point"*, align 8
  %8 = alloca i8*
  %9 = alloca i32
  %10 = alloca %"class.emp::Integer", align 8
  %11 = alloca %"class.emp::Integer", align 8
  %12 = alloca i32, align 4
  %13 = alloca %"class.sample::Point"*, align 8
  %14 = alloca %"class.emp::Integer", align 8
  %15 = alloca %"class.emp::Integer", align 8
  %16 = alloca %"class.emp::Integer", align 8
  %17 = alloca %"class.emp::Integer", align 8
  %18 = alloca %"class.emp::Integer", align 8
  %19 = alloca %"class.emp::Integer", align 8
  store i32 %1, i32* %4, align 4
  store i32 %2, i32* %5, align 4
  %20 = load i32, i32* %4, align 4
  %21 = load i32, i32* %5, align 4
  %22 = call i32 (i8*, ...) @printf(i8* getelementptr inbounds ([20 x i8], [20 x i8]* @.str.17, i32 0, i32 0), i8* getelementptr inbounds ([13 x i8], [13 x i8]* @__FUNCTION__._Z12ReturnPointsii, i32 0, i32 0), i32 %20, i32 %21)
  store i1 false, i1* %6, align 1
  call void @_ZN6sample6PointsC1Ev(%"class.sample::Points"* %0)
  %23 = invoke %"class.sample::Point"* @_ZN6sample6Points10add_pointsEv(%"class.sample::Points"* %0)
          to label %24 unwind label %64

; <label>:24:                                     ; preds = %3
  store %"class.sample::Point"* %23, %"class.sample::Point"** %7, align 8
  %25 = load %"class.sample::Point"*, %"class.sample::Point"** %7, align 8
  %26 = load i32, i32* %4, align 4
  invoke void @_ZN6sample5Point5set_xEi(%"class.sample::Point"* %25, i32 %26)
          to label %27 unwind label %64

; <label>:27:                                     ; preds = %24
  %28 = load %"class.sample::Point"*, %"class.sample::Point"** %7, align 8
  %29 = load i32, i32* %5, align 4
  invoke void @_ZN6sample5Point5set_yEi(%"class.sample::Point"* %28, i32 %29)
          to label %30 unwind label %64

; <label>:30:                                     ; preds = %27
  invoke void @_ZN3emp7IntegerC1ERKii(%"class.emp::Integer"* %10, i32* dereferenceable(4) %4, i32 1)
          to label %31 unwind label %64

; <label>:31:                                     ; preds = %30
  invoke void @_ZN3emp7IntegerC1ERKii(%"class.emp::Integer"* %11, i32* dereferenceable(4) %5, i32 2)
          to label %32 unwind label %68

; <label>:32:                                     ; preds = %31
  store i32 1, i32* %12, align 4
  br label %33

; <label>:33:                                     ; preds = %61, %32
  %34 = load i32, i32* %12, align 4
  %35 = icmp slt i32 %34, 10
  br i1 %35, label %36, label %104

; <label>:36:                                     ; preds = %33
  %37 = invoke %"class.sample::Point"* @_ZN6sample6Points10add_pointsEv(%"class.sample::Points"* %0)
          to label %38 unwind label %72

; <label>:38:                                     ; preds = %36
  store %"class.sample::Point"* %37, %"class.sample::Point"** %13, align 8
  %39 = load %"class.sample::Point"*, %"class.sample::Point"** %13, align 8
  %40 = load i32, i32* %12, align 4
  %41 = sext i32 %40 to i64
  invoke void @_ZNK3emp7IntegerplERKS0_(%"class.emp::Integer"* sret %16, %"class.emp::Integer"* %11, %"class.emp::Integer"* dereferenceable(16) %10)
          to label %42 unwind label %72

; <label>:42:                                     ; preds = %38
  invoke void @_ZNK3emp7IntegeranERKS0_(%"class.emp::Integer"* sret %15, %"class.emp::Integer"* %16, %"class.emp::Integer"* dereferenceable(16) %11)
          to label %43 unwind label %76

; <label>:43:                                     ; preds = %42
  invoke void @_ZNK3emp7IntegerorERKS0_(%"class.emp::Integer"* sret %14, %"class.emp::Integer"* %10, %"class.emp::Integer"* dereferenceable(16) %15)
          to label %44 unwind label %80

; <label>:44:                                     ; preds = %43
  %45 = invoke i64 @_ZNK3emp7Integer10reveal_intEi(%"class.emp::Integer"* %14, i32 0)
          to label %46 unwind label %84

; <label>:46:                                     ; preds = %44
  %47 = mul nsw i64 %41, %45
  %48 = trunc i64 %47 to i32
  invoke void @_ZN6sample5Point5set_xEi(%"class.sample::Point"* %39, i32 %48)
          to label %49 unwind label %84

; <label>:49:                                     ; preds = %46
  call void @_ZN3emp7IntegerD1Ev(%"class.emp::Integer"* %14) #3
  call void @_ZN3emp7IntegerD1Ev(%"class.emp::Integer"* %15) #3
  call void @_ZN3emp7IntegerD1Ev(%"class.emp::Integer"* %16) #3
  %50 = load %"class.sample::Point"*, %"class.sample::Point"** %13, align 8
  %51 = load i32, i32* %12, align 4
  %52 = sext i32 %51 to i64
  invoke void @_ZNK3emp7IntegermiERKS0_(%"class.emp::Integer"* sret %19, %"class.emp::Integer"* %11, %"class.emp::Integer"* dereferenceable(16) %10)
          to label %53 unwind label %72

; <label>:53:                                     ; preds = %49
  invoke void @_ZNK3emp7IntegeranERKS0_(%"class.emp::Integer"* sret %18, %"class.emp::Integer"* %19, %"class.emp::Integer"* dereferenceable(16) %11)
          to label %54 unwind label %90

; <label>:54:                                     ; preds = %53
  invoke void @_ZNK3emp7IntegerorERKS0_(%"class.emp::Integer"* sret %17, %"class.emp::Integer"* %10, %"class.emp::Integer"* dereferenceable(16) %18)
          to label %55 unwind label %94

; <label>:55:                                     ; preds = %54
  %56 = invoke i64 @_ZNK3emp7Integer10reveal_intEi(%"class.emp::Integer"* %17, i32 0)
          to label %57 unwind label %98

; <label>:57:                                     ; preds = %55
  %58 = mul nsw i64 %52, %56
  %59 = trunc i64 %58 to i32
  invoke void @_ZN6sample5Point5set_yEi(%"class.sample::Point"* %50, i32 %59)
          to label %60 unwind label %98

; <label>:60:                                     ; preds = %57
  call void @_ZN3emp7IntegerD1Ev(%"class.emp::Integer"* %17) #3
  call void @_ZN3emp7IntegerD1Ev(%"class.emp::Integer"* %18) #3
  call void @_ZN3emp7IntegerD1Ev(%"class.emp::Integer"* %19) #3
  br label %61

; <label>:61:                                     ; preds = %60
  %62 = load i32, i32* %12, align 4
  %63 = add nsw i32 %62, 1
  store i32 %63, i32* %12, align 4
  br label %33

; <label>:64:                                     ; preds = %30, %27, %24, %3
  %65 = landingpad { i8*, i32 }
          cleanup
  %66 = extractvalue { i8*, i32 } %65, 0
  store i8* %66, i8** %8, align 8
  %67 = extractvalue { i8*, i32 } %65, 1
  store i32 %67, i32* %9, align 4
  br label %110

; <label>:68:                                     ; preds = %31
  %69 = landingpad { i8*, i32 }
          cleanup
  %70 = extractvalue { i8*, i32 } %69, 0
  store i8* %70, i8** %8, align 8
  %71 = extractvalue { i8*, i32 } %69, 1
  store i32 %71, i32* %9, align 4
  br label %107

; <label>:72:                                     ; preds = %49, %38, %36
  %73 = landingpad { i8*, i32 }
          cleanup
  %74 = extractvalue { i8*, i32 } %73, 0
  store i8* %74, i8** %8, align 8
  %75 = extractvalue { i8*, i32 } %73, 1
  store i32 %75, i32* %9, align 4
  br label %106

; <label>:76:                                     ; preds = %42
  %77 = landingpad { i8*, i32 }
          cleanup
  %78 = extractvalue { i8*, i32 } %77, 0
  store i8* %78, i8** %8, align 8
  %79 = extractvalue { i8*, i32 } %77, 1
  store i32 %79, i32* %9, align 4
  br label %89

; <label>:80:                                     ; preds = %43
  %81 = landingpad { i8*, i32 }
          cleanup
  %82 = extractvalue { i8*, i32 } %81, 0
  store i8* %82, i8** %8, align 8
  %83 = extractvalue { i8*, i32 } %81, 1
  store i32 %83, i32* %9, align 4
  br label %88

; <label>:84:                                     ; preds = %46, %44
  %85 = landingpad { i8*, i32 }
          cleanup
  %86 = extractvalue { i8*, i32 } %85, 0
  store i8* %86, i8** %8, align 8
  %87 = extractvalue { i8*, i32 } %85, 1
  store i32 %87, i32* %9, align 4
  call void @_ZN3emp7IntegerD1Ev(%"class.emp::Integer"* %14) #3
  br label %88

; <label>:88:                                     ; preds = %84, %80
  call void @_ZN3emp7IntegerD1Ev(%"class.emp::Integer"* %15) #3
  br label %89

; <label>:89:                                     ; preds = %88, %76
  call void @_ZN3emp7IntegerD1Ev(%"class.emp::Integer"* %16) #3
  br label %106

; <label>:90:                                     ; preds = %53
  %91 = landingpad { i8*, i32 }
          cleanup
  %92 = extractvalue { i8*, i32 } %91, 0
  store i8* %92, i8** %8, align 8
  %93 = extractvalue { i8*, i32 } %91, 1
  store i32 %93, i32* %9, align 4
  br label %103

; <label>:94:                                     ; preds = %54
  %95 = landingpad { i8*, i32 }
          cleanup
  %96 = extractvalue { i8*, i32 } %95, 0
  store i8* %96, i8** %8, align 8
  %97 = extractvalue { i8*, i32 } %95, 1
  store i32 %97, i32* %9, align 4
  br label %102

; <label>:98:                                     ; preds = %57, %55
  %99 = landingpad { i8*, i32 }
          cleanup
  %100 = extractvalue { i8*, i32 } %99, 0
  store i8* %100, i8** %8, align 8
  %101 = extractvalue { i8*, i32 } %99, 1
  store i32 %101, i32* %9, align 4
  call void @_ZN3emp7IntegerD1Ev(%"class.emp::Integer"* %17) #3
  br label %102

; <label>:102:                                    ; preds = %98, %94
  call void @_ZN3emp7IntegerD1Ev(%"class.emp::Integer"* %18) #3
  br label %103

; <label>:103:                                    ; preds = %102, %90
  call void @_ZN3emp7IntegerD1Ev(%"class.emp::Integer"* %19) #3
  br label %106

; <label>:104:                                    ; preds = %33
  store i1 true, i1* %6, align 1
  call void @_ZN3emp7IntegerD1Ev(%"class.emp::Integer"* %11) #3
  call void @_ZN3emp7IntegerD1Ev(%"class.emp::Integer"* %10) #3
  %105 = load i1, i1* %6, align 1
  br i1 %105, label %109, label %108

; <label>:106:                                    ; preds = %103, %89, %72
  call void @_ZN3emp7IntegerD1Ev(%"class.emp::Integer"* %11) #3
  br label %107

; <label>:107:                                    ; preds = %106, %68
  call void @_ZN3emp7IntegerD1Ev(%"class.emp::Integer"* %10) #3
  br label %110

; <label>:108:                                    ; preds = %104
  call void @_ZN6sample6PointsD1Ev(%"class.sample::Points"* %0) #3
  br label %109

; <label>:109:                                    ; preds = %108, %104
  ret void

; <label>:110:                                    ; preds = %107, %64
  call void @_ZN6sample6PointsD1Ev(%"class.sample::Points"* %0) #3
  br label %111

; <label>:111:                                    ; preds = %110
  %112 = load i8*, i8** %8, align 8
  %113 = load i32, i32* %9, align 4
  %114 = insertvalue { i8*, i32 } undef, i8* %112, 0
  %115 = insertvalue { i8*, i32 } %114, i32 %113, 1
  resume { i8*, i32 } %115
}

; Function Attrs: noinline optnone uwtable
define linkonce_odr %"class.sample::Point"* @_ZN6sample6Points10add_pointsEv(%"class.sample::Points"*) #4 comdat align 2 {
  %2 = alloca %"class.sample::Points"*, align 8
  store %"class.sample::Points"* %0, %"class.sample::Points"** %2, align 8
  %3 = load %"class.sample::Points"*, %"class.sample::Points"** %2, align 8
  %4 = getelementptr inbounds %"class.sample::Points", %"class.sample::Points"* %3, i32 0, i32 2
  %5 = call %"class.sample::Point"* @_ZN6google8protobuf16RepeatedPtrFieldIN6sample5PointEE3AddEv(%"class.google::protobuf::RepeatedPtrField"* %4)
  ret %"class.sample::Point"* %5
}

; Function Attrs: noinline nounwind optnone uwtable
define linkonce_odr void @_ZN6sample5Point5set_xEi(%"class.sample::Point"*, i32) #5 comdat align 2 {
  %3 = alloca %"class.sample::Point"*, align 8
  %4 = alloca i32, align 4
  store %"class.sample::Point"* %0, %"class.sample::Point"** %3, align 8
  store i32 %1, i32* %4, align 4
  %5 = load %"class.sample::Point"*, %"class.sample::Point"** %3, align 8
  %6 = load i32, i32* %4, align 4
  %7 = getelementptr inbounds %"class.sample::Point", %"class.sample::Point"* %5, i32 0, i32 2
  store i32 %6, i32* %7, align 8
  ret void
}

; Function Attrs: noinline nounwind optnone uwtable
define linkonce_odr void @_ZN6sample5Point5set_yEi(%"class.sample::Point"*, i32) #5 comdat align 2 {
  %3 = alloca %"class.sample::Point"*, align 8
  %4 = alloca i32, align 4
  store %"class.sample::Point"* %0, %"class.sample::Point"** %3, align 8
  store i32 %1, i32* %4, align 4
  %5 = load %"class.sample::Point"*, %"class.sample::Point"** %3, align 8
  %6 = load i32, i32* %4, align 4
  %7 = getelementptr inbounds %"class.sample::Point", %"class.sample::Point"* %5, i32 0, i32 3
  store i32 %6, i32* %7, align 4
  ret void
}

; Function Attrs: noinline optnone uwtable
define linkonce_odr %"class.sample::Point"* @_ZN6google8protobuf16RepeatedPtrFieldIN6sample5PointEE3AddEv(%"class.google::protobuf::RepeatedPtrField"*) #4 comdat align 2 {
  %2 = alloca %"class.google::protobuf::RepeatedPtrField"*, align 8
  store %"class.google::protobuf::RepeatedPtrField"* %0, %"class.google::protobuf::RepeatedPtrField"** %2, align 8
  %3 = load %"class.google::protobuf::RepeatedPtrField"*, %"class.google::protobuf::RepeatedPtrField"** %2, align 8
  %4 = bitcast %"class.google::protobuf::RepeatedPtrField"* %3 to %"class.google::protobuf::internal::RepeatedPtrFieldBase"*
  %5 = call %"class.sample::Point"* @_ZN6google8protobuf8internal20RepeatedPtrFieldBase3AddINS0_16RepeatedPtrFieldIN6sample5PointEE11TypeHandlerEEEPNT_4TypeESB_(%"class.google::protobuf::internal::RepeatedPtrFieldBase"* %4, %"class.sample::Point"* null)
  ret %"class.sample::Point"* %5
}

; Function Attrs: noinline optnone uwtable
define linkonce_odr %"class.sample::Point"* @_ZN6google8protobuf8internal20RepeatedPtrFieldBase3AddINS0_16RepeatedPtrFieldIN6sample5PointEE11TypeHandlerEEEPNT_4TypeESB_(%"class.google::protobuf::internal::RepeatedPtrFieldBase"*, %"class.sample::Point"*) #4 comdat align 2 {
  %3 = alloca %"class.sample::Point"*, align 8
  %4 = alloca %"class.google::protobuf::internal::RepeatedPtrFieldBase"*, align 8
  %5 = alloca %"class.sample::Point"*, align 8
  %6 = alloca %"class.sample::Point"*, align 8
  store %"class.google::protobuf::internal::RepeatedPtrFieldBase"* %0, %"class.google::protobuf::internal::RepeatedPtrFieldBase"** %4, align 8
