; ModuleID = 'module'
source_filename = "module"
target datalayout = "e-m:w-i64:64-f80:128-n8:16:32:64-S128"
target triple = "x86_64-pc-windows-msvc19.15.26729"

%"class.google::protobuf::internal::ExplicitlyConstructed" = type { %"union.google::protobuf::internal::ExplicitlyConstructed<std::basic_string<char, std::char_traits<char>, std::allocator<char> > >::AlignedUnion" }
%"union.google::protobuf::internal::ExplicitlyConstructed<std::basic_string<char, std::char_traits<char>, std::allocator<char> > >::AlignedUnion" = type { i64, [24 x i8] }
%"class.simpleproto2::FooDefaultTypeInternal" = type { %"class.google::protobuf::internal::ExplicitlyConstructed.9" }
%"class.google::protobuf::internal::ExplicitlyConstructed.9" = type { %"union.google::protobuf::internal::ExplicitlyConstructed<simpleproto2::Foo>::AlignedUnion" }
%"union.google::protobuf::internal::ExplicitlyConstructed<simpleproto2::Foo>::AlignedUnion" = type { i64, [32 x i8] }
%rtti.CompleteObjectLocator = type { i32, i32, i32, i32, i32, i32 }
%rtti.TypeDescriptor47 = type { i8**, i8*, [48 x i8] }
%rtti.ClassHierarchyDescriptor = type { i32, i32, i32, i32 }
%rtti.BaseClassDescriptor = type { i32, i32, i32, i32, i32, i32, i32 }
%rtti.TypeDescriptor29 = type { i8**, i8*, [30 x i8] }
%rtti.TypeDescriptor192 = type { i8**, i8*, [193 x i8] }
%rtti.TypeDescriptor33 = type { i8**, i8*, [34 x i8] }
%rtti.TypeDescriptor22 = type { i8**, i8*, [23 x i8] }
%"class.simpleproto2::Bar" = type { %"class.google::protobuf::Message", %"class.google::protobuf::internal::InternalMetadataWithArena", %"class.simpleproto2::Foo"*, i32, float, i32 }
%"class.google::protobuf::Message" = type { %"class.google::protobuf::MessageLite" }
%"class.google::protobuf::MessageLite" = type { i32 (...)** }
%"class.google::protobuf::internal::InternalMetadataWithArena" = type { %"class.google::protobuf::internal::InternalMetadataWithArenaBase" }
%"class.google::protobuf::internal::InternalMetadataWithArenaBase" = type { i8* }
%"class.simpleproto2::Foo" = type { %"class.google::protobuf::Message", %"class.google::protobuf::internal::InternalMetadataWithArena", %"struct.google::protobuf::internal::ArenaStringPtr", i32, float, i32 }
%"struct.google::protobuf::internal::ArenaStringPtr" = type { %"class.std::basic_string"* }
%"class.std::basic_string" = type { %"class.std::_String_alloc" }
%"class.std::_String_alloc" = type { %"class.std::_Compressed_pair" }
%"class.std::_Compressed_pair" = type { %"class.std::_String_val" }
%"class.std::_String_val" = type { %"union.std::_String_val<std::_Simple_types<char> >::_Bxty", i64, i64 }
%"union.std::_String_val<std::_Simple_types<char> >::_Bxty" = type { i8*, [8 x i8] }
%"class.emp::Integer" = type { [4 x i8], i32, %"class.emp::Bit"* }
%"class.emp::Bit" = type { %union.__m128i }
%union.__m128i = type { [2 x i64] }
%"class.std::allocator" = type { i8 }
%struct.__crt_locale_pointers = type { %struct.__crt_locale_data*, %struct.__crt_multibyte_data* }
%struct.__crt_locale_data = type opaque
%struct.__crt_multibyte_data = type opaque
%"class.google::protobuf::Arena" = type { %"class.google::protobuf::internal::ArenaImpl", i8* (%"class.google::protobuf::Arena"*)*, void (%class.type_info*, i64, i8*)*, void (%"class.google::protobuf::Arena"*, i8*, i64)*, void (%"class.google::protobuf::Arena"*, i8*, i64)*, i8* }
%"class.google::protobuf::internal::ArenaImpl" = type { i64, i64, i64, %"struct.google::protobuf::internal::ArenaImpl::Block"*, i64, %"struct.google::protobuf::internal::ArenaImpl::Options" }
%"struct.google::protobuf::internal::ArenaImpl::Block" = type { i8*, %"struct.google::protobuf::internal::ArenaImpl::ThreadInfo"*, %"struct.google::protobuf::internal::ArenaImpl::Block"*, i64, i64 }
%"struct.google::protobuf::internal::ArenaImpl::ThreadInfo" = type { i8*, %"struct.google::protobuf::internal::ArenaImpl::Block"*, %"struct.google::protobuf::internal::ArenaImpl::CleanupChunk"*, %"struct.google::protobuf::internal::ArenaImpl::ThreadInfo"* }
%"struct.google::protobuf::internal::ArenaImpl::CleanupChunk" = type { i64, i64, %"struct.google::protobuf::internal::ArenaImpl::CleanupChunk"*, [1 x %"struct.google::protobuf::internal::ArenaImpl::CleanupNode"] }
%"struct.google::protobuf::internal::ArenaImpl::CleanupNode" = type { i8*, void (i8*)* }
%"struct.google::protobuf::internal::ArenaImpl::Options" = type { i64, i64, i8*, i64, i8* (i64)*, void (i8*, i64)* }
%class.type_info = type { i32 (...)**, %struct.__std_type_info_data }
%struct.__std_type_info_data = type { i8*, [1 x i8] }
%"class.simpleproto2::Foo.11" = type { %"class.google::protobuf::MessageLite", %"class.google::protobuf::internal::InternalMetadataWithArena", %"struct.google::protobuf::internal::ArenaStringPtr", i32, float, i32 }
%"struct.google::protobuf::internal::InternalMetadataWithArenaBase<std::basic_string<char, std::char_traits<char>, std::allocator<char> >, google::protobuf::internal::InternalMetadataWithArenaLite>::Container" = type { %"class.std::basic_string", %"class.google::protobuf::Arena"* }
%"class.google::protobuf::internal::FunctionClosure0" = type { %"class.google::protobuf::MessageLite", void ()*, i8 }
%"class.google::protobuf::io::CodedInputStream" = type { i8*, i8*, %"class.google::protobuf::MessageLite"*, i32, i32, i32, i8, i8, i32, i32, i32, i32, i32, i8, %"class.google::protobuf::DescriptorPool"*, %"class.google::protobuf::MessageFactory"* }
%"class.google::protobuf::DescriptorPool" = type opaque
%"class.google::protobuf::MessageFactory" = type opaque
%"class.google::protobuf::internal::LiteUnknownFieldSetter" = type { %"class.google::protobuf::internal::InternalMetadataWithArena"*, %"class.std::basic_string" }
%"class.google::protobuf::io::StringOutputStream" = type { %"class.google::protobuf::MessageLite", %"class.std::basic_string"* }
%"class.google::protobuf::io::CodedOutputStream" = type { %"class.google::protobuf::MessageLite"*, i8*, i32, i32, i8, i8, i8, i8 }
%"struct.std::pair" = type { i32, i8 }
%"class.google::protobuf::internal::LogMessage" = type { i32, i8*, i32, %"class.std::basic_string" }
%union.anon = type { float }
%"class.simpleproto2::Bar.23" = type { %"class.google::protobuf::MessageLite", %"class.google::protobuf::internal::InternalMetadataWithArena", %"class.simpleproto2::Foo.11"*, i32, float, i32 }
%"struct.std::pair.44" = type { i32, i32 }

$"\01?i32@Bar@simpleproto2@@QEBAHXZ" = comdat any

$printf = comdat any

$"\01?foo@Bar@simpleproto2@@QEBAAEBVFoo@2@XZ" = comdat any

$"\01?i32@Foo@simpleproto2@@QEBAHXZ" = comdat any

$"\01?set_i32@Foo@simpleproto2@@QEAAXH@Z" = comdat any

$"\01?set_f@Foo@simpleproto2@@QEAAXM@Z" = comdat any

$"\01?to_string@std@@YA?AV?$basic_string@DU?$char_traits@D@std@@V?$allocator@D@2@@1@H@Z" = comdat any

$"\01??$?HDU?$char_traits@D@std@@V?$allocator@D@1@@std@@YA?AV?$basic_string@DU?$char_traits@D@std@@V?$allocator@D@2@@0@QEBD$$QEAV10@@Z" = comdat any

$"\01??$?HDU?$char_traits@D@std@@V?$allocator@D@1@@std@@YA?AV?$basic_string@DU?$char_traits@D@std@@V?$allocator@D@2@@0@$$QEAV10@QEBD@Z" = comdat any

$"\01??$?HDU?$char_traits@D@std@@V?$allocator@D@1@@std@@YA?AV?$basic_string@DU?$char_traits@D@std@@V?$allocator@D@2@@0@$$QEAV10@0@Z" = comdat any

$"\01?set_s@Foo@simpleproto2@@QEAAX$$QEAV?$basic_string@DU?$char_traits@D@std@@V?$allocator@D@2@@std@@@Z" = comdat any

$"\01??1?$basic_string@DU?$char_traits@D@std@@V?$allocator@D@2@@std@@QEAA@XZ" = comdat any

$"\01?set_allocated_foo@Bar@simpleproto2@@QEAAXPEAVFoo@2@@Z" = comdat any

$"\01?set_i32@Bar@simpleproto2@@QEAAXH@Z" = comdat any

$"\01?GetArenaNoVirtual@Bar@simpleproto2@@AEBAPEAVArena@protobuf@google@@XZ" = comdat any

$"\01??$GetOwnedMessage@VFoo@simpleproto2@@@internal@protobuf@google@@YAPEAVFoo@simpleproto2@@PEAVArena@12@PEAV34@0@Z" = comdat any

$"\01?_Tidy_deallocate@?$basic_string@DU?$char_traits@D@std@@V?$allocator@D@2@@std@@QEAAXXZ" = comdat any

$"\01??1?$_String_alloc@U?$_String_base_types@DV?$allocator@D@std@@@std@@@std@@QEAA@XZ" = comdat any

$"\01??1?$_Compressed_pair@V?$allocator@D@std@@V?$_String_val@U?$_Simple_types@D@std@@@2@$00@std@@QEAA@XZ" = comdat any

$"\01??1?$_String_val@U?$_Simple_types@D@std@@@std@@QEAA@XZ" = comdat any

$"\01??1_Bxty@?$_String_val@U?$_Simple_types@D@std@@@std@@QEAA@XZ" = comdat any

$"\01?_Orphan_all@?$_String_alloc@U?$_String_base_types@DV?$allocator@D@std@@@std@@@std@@QEAAXXZ" = comdat any

$"\01?_Get_data@?$_String_alloc@U?$_String_base_types@DV?$allocator@D@std@@@std@@@std@@QEAAAEAV?$_String_val@U?$_Simple_types@D@std@@@2@XZ" = comdat any

$"\01?_Large_string_engaged@?$_String_val@U?$_Simple_types@D@std@@@std@@QEBA_NXZ" = comdat any

$"\01?_Getal@?$_String_alloc@U?$_String_base_types@DV?$allocator@D@std@@@std@@@std@@QEAAAEAV?$allocator@D@2@XZ" = comdat any

$"\01??$addressof@PEAD@std@@YAPEAPEADAEAPEAD@Z" = comdat any

$"\01??$destroy@PEAD@?$_Default_allocator_traits@V?$allocator@D@std@@@std@@SAXAEAV?$allocator@D@1@QEAPEAD@Z" = comdat any

$"\01?deallocate@?$allocator@D@std@@QEAAXQEAD_K@Z" = comdat any

$"\01?assign@?$char_traits@D@std@@SAXAEADAEBD@Z" = comdat any

$"\01??$_Deallocate@$0BA@$0A@@std@@YAXPEAX_K@Z" = comdat any

$"\01?_Adjust_manually_vector_aligned@std@@YAXAEAPEAXAEA_K@Z" = comdat any

$"\01?_Get_first@?$_Compressed_pair@V?$allocator@D@std@@V?$_String_val@U?$_Simple_types@D@std@@@2@$00@std@@QEAAAEAV?$allocator@D@2@XZ" = comdat any

$"\01?_Get_second@?$_Compressed_pair@V?$allocator@D@std@@V?$_String_val@U?$_Simple_types@D@std@@@2@$00@std@@QEAAAEAV?$_String_val@U?$_Simple_types@D@std@@@2@XZ" = comdat any

$"\01?_Orphan_all@_Container_base0@std@@QEAAXXZ" = comdat any

$"\01??$move@AEAV?$basic_string@DU?$char_traits@D@std@@V?$allocator@D@2@@std@@@std@@YA$$QEAV?$basic_string@DU?$char_traits@D@std@@V?$allocator@D@2@@0@AEAV10@@Z" = comdat any

$"\01?GetEmptyStringAlreadyInited@internal@protobuf@google@@YAAEBV?$basic_string@DU?$char_traits@D@std@@V?$allocator@D@2@@std@@XZ" = comdat any

$"\01?SetNoArena@ArenaStringPtr@internal@protobuf@google@@QEAAXPEBV?$basic_string@DU?$char_traits@D@std@@V?$allocator@D@2@@std@@$$QEAV56@@Z" = comdat any

$"\01?IsDefault@ArenaStringPtr@internal@protobuf@google@@QEBA_NPEBV?$basic_string@DU?$char_traits@D@std@@V?$allocator@D@2@@std@@@Z" = comdat any

$"\01??0?$basic_string@DU?$char_traits@D@std@@V?$allocator@D@2@@std@@QEAA@$$QEAV01@@Z" = comdat any

$"\01??4?$basic_string@DU?$char_traits@D@std@@V?$allocator@D@2@@std@@QEAAAEAV01@$$QEAV01@@Z" = comdat any

$"\01??$addressof@V?$basic_string@DU?$char_traits@D@std@@V?$allocator@D@2@@std@@@std@@YAPEAV?$basic_string@DU?$char_traits@D@std@@V?$allocator@D@2@@0@AEAV10@@Z" = comdat any

$"\01?_Move_alloc@?$_String_alloc@U?$_String_base_types@DV?$allocator@D@std@@@std@@@std@@QEAAXAEAV?$allocator@D@2@@Z" = comdat any

$"\01?_Assign_rv_contents@?$basic_string@DU?$char_traits@D@std@@V?$allocator@D@2@@std@@QEAAX$$QEAV12@U?$integral_constant@_N$00@2@@Z" = comdat any

$"\01?_Assign_rv_contents_with_alloc_always_equal@?$basic_string@DU?$char_traits@D@std@@V?$allocator@D@2@@std@@QEAAX$$QEAV12@U?$integral_constant@_N$00@2@@Z" = comdat any

$"\01??$addressof@V?$_String_val@U?$_Simple_types@D@std@@@std@@@std@@YAPEAV?$_String_val@U?$_Simple_types@D@std@@@0@AEAV10@@Z" = comdat any

$"\01?_Tidy_init@?$basic_string@DU?$char_traits@D@std@@V?$allocator@D@2@@std@@QEAAXXZ" = comdat any

$"\01??$_Pocma@V?$allocator@D@std@@@std@@YAXAEAV?$allocator@D@0@0@Z" = comdat any

$"\01??$_Pocma@V?$allocator@D@std@@@std@@YAXAEAV?$allocator@D@0@0U?$integral_constant@_N$00@0@@Z" = comdat any

$"\01??$move@AEAV?$allocator@D@std@@@std@@YA$$QEAV?$allocator@D@0@AEAV10@@Z" = comdat any

$"\01??$?0V?$allocator@D@std@@X@?$_String_alloc@U?$_String_base_types@DV?$allocator@D@std@@@std@@@std@@QEAA@$$QEAV?$allocator@D@1@@Z" = comdat any

$"\01??$forward@V?$allocator@D@std@@@std@@YA$$QEAV?$allocator@D@0@AEAV10@@Z" = comdat any

$"\01??$?0V?$allocator@D@std@@$$V@?$_Compressed_pair@V?$allocator@D@std@@V?$_String_val@U?$_Simple_types@D@std@@@2@$00@std@@QEAA@U_One_then_variadic_args_t@1@$$QEAV?$allocator@D@1@@Z" = comdat any

$"\01??0?$_String_val@U?$_Simple_types@D@std@@@std@@QEAA@XZ" = comdat any

$"\01??0_Bxty@?$_String_val@U?$_Simple_types@D@std@@@std@@QEAA@XZ" = comdat any

$"\01?get@?$ExplicitlyConstructed@V?$basic_string@DU?$char_traits@D@std@@V?$allocator@D@2@@std@@@internal@protobuf@google@@QEBAAEBV?$basic_string@DU?$char_traits@D@std@@V?$allocator@D@2@@std@@XZ" = comdat any

$"\01?size@?$basic_string@DU?$char_traits@D@std@@V?$allocator@D@2@@std@@QEBA_KXZ" = comdat any

$"\01?capacity@?$basic_string@DU?$char_traits@D@std@@V?$allocator@D@2@@std@@QEBA_KXZ" = comdat any

$"\01?append@?$basic_string@DU?$char_traits@D@std@@V?$allocator@D@2@@std@@QEAAAEAV12@AEBV12@@Z" = comdat any

$"\01?insert@?$basic_string@DU?$char_traits@D@std@@V?$allocator@D@2@@std@@QEAAAEAV12@_KAEBV12@@Z" = comdat any

$"\01?_Get_data@?$_String_alloc@U?$_String_base_types@DV?$allocator@D@std@@@std@@@std@@QEBAAEBV?$_String_val@U?$_Simple_types@D@std@@@2@XZ" = comdat any

$"\01?_Myptr@?$_String_val@U?$_Simple_types@D@std@@@std@@QEBAPEBDXZ" = comdat any

$"\01?insert@?$basic_string@DU?$char_traits@D@std@@V?$allocator@D@2@@std@@QEAAAEAV12@_KQEBD0@Z" = comdat any

$"\01?_Check_offset@?$_String_val@U?$_Simple_types@D@std@@@std@@QEBAX_K@Z" = comdat any

$"\01?_Myptr@?$_String_val@U?$_Simple_types@D@std@@@std@@QEAAPEADXZ" = comdat any

$"\01?move@?$char_traits@D@std@@SAPEADQEADQEBD_K@Z" = comdat any

$"\01?copy@?$char_traits@D@std@@SAPEADQEADQEBD_K@Z" = comdat any

$"\01??$_Reallocate_grow_by@V<lambda_1>@?0??insert@?$basic_string@DU?$char_traits@D@std@@V?$allocator@D@2@@std@@QEAAAEAV34@_KQEBD0@Z@_KPEBD_K@?$basic_string@DU?$char_traits@D@std@@V?$allocator@D@2@@std@@QEAAAEAV01@_KV<lambda_1>@?0??insert@01@QEAAAEAV01@0QEBD0@Z@_KPEBD3@Z" = comdat any

$"\01?max_size@?$basic_string@DU?$char_traits@D@std@@V?$allocator@D@2@@std@@QEBA_KXZ" = comdat any

$"\01?_Xlen@?$basic_string@DU?$char_traits@D@std@@V?$allocator@D@2@@std@@SAXXZ" = comdat any

$"\01?_Calculate_growth@?$basic_string@DU?$char_traits@D@std@@V?$allocator@D@2@@std@@QEBA_K_K@Z" = comdat any

$"\01?allocate@?$allocator@D@std@@QEAAPEAD_K@Z" = comdat any

$"\01??$_Unfancy@D@std@@YAPEADPEAD@Z" = comdat any

$"\01??R<lambda_1>@?0??insert@?$basic_string@DU?$char_traits@D@std@@V?$allocator@D@2@@std@@QEAAAEAV23@_KQEBD0@Z@QEBA?A?<auto>@@QEAD10010@Z" = comdat any

$"\01??$construct@PEADAEBQEAD@?$_Default_allocator_traits@V?$allocator@D@std@@@std@@SAXAEAV?$allocator@D@1@QEAPEADAEBQEAD@Z" = comdat any

$"\01??$forward@AEBQEAD@std@@YAAEBQEADAEBQEAD@Z" = comdat any

$"\01??$_Get_size_of_n@$00@std@@YA_K_K@Z" = comdat any

$"\01??$_Allocate@$0BA@U_Default_allocate_traits@std@@$0A@@std@@YAPEAX_K@Z" = comdat any

$"\01??$_Allocate_manually_vector_aligned@U_Default_allocate_traits@std@@@std@@YAPEAX_K@Z" = comdat any

$"\01?_Allocate@_Default_allocate_traits@std@@SAPEAX_K@Z" = comdat any

$"\01??$_Max_value@_K@std@@YAAEB_KAEB_K0@Z" = comdat any

$"\01?_Getal@?$_String_alloc@U?$_String_base_types@DV?$allocator@D@std@@@std@@@std@@QEBAAEBV?$allocator@D@2@XZ" = comdat any

$"\01?max_size@?$_Default_allocator_traits@V?$allocator@D@std@@@std@@SA_KAEBV?$allocator@D@2@@Z" = comdat any

$"\01?max@?$numeric_limits@_J@std@@SA_JXZ" = comdat any

$"\01??$_Min_value@_K@std@@YAAEB_KAEB_K0@Z" = comdat any

$"\01?_Get_first@?$_Compressed_pair@V?$allocator@D@std@@V?$_String_val@U?$_Simple_types@D@std@@@2@$00@std@@QEBAAEBV?$allocator@D@2@XZ" = comdat any

$"\01?_Xran@?$_String_val@U?$_Simple_types@D@std@@@std@@SAXXZ" = comdat any

$"\01?_Get_second@?$_Compressed_pair@V?$allocator@D@std@@V?$_String_val@U?$_Simple_types@D@std@@@2@$00@std@@QEBAAEBV?$_String_val@U?$_Simple_types@D@std@@@2@XZ" = comdat any

$"\01?append@?$basic_string@DU?$char_traits@D@std@@V?$allocator@D@2@@std@@QEAAAEAV12@QEBD_K@Z" = comdat any

$"\01??$_Reallocate_grow_by@V<lambda_1>@?0??append@?$basic_string@DU?$char_traits@D@std@@V?$allocator@D@2@@std@@QEAAAEAV34@QEBD_K@Z@PEBD_K@?$basic_string@DU?$char_traits@D@std@@V?$allocator@D@2@@std@@QEAAAEAV01@_KV<lambda_1>@?0??append@01@QEAAAEAV01@QEBD0@Z@PEBD_K@Z" = comdat any

$"\01??R<lambda_1>@?0??append@?$basic_string@DU?$char_traits@D@std@@V?$allocator@D@2@@std@@QEAAAEAV23@QEBD_K@Z@QEBA?A?<auto>@@QEAD0101@Z" = comdat any

$"\01?append@?$basic_string@DU?$char_traits@D@std@@V?$allocator@D@2@@std@@QEAAAEAV12@QEBD@Z" = comdat any

$"\01?length@?$char_traits@D@std@@SA_KQEBD@Z" = comdat any

$"\01??$_Convert_size@_K@std@@YA_K_K@Z" = comdat any

$"\01?insert@?$basic_string@DU?$char_traits@D@std@@V?$allocator@D@2@@std@@QEAAAEAV12@_KQEBD@Z" = comdat any

$"\01??$_Integral_to_string@DH@std@@YA?AV?$basic_string@DU?$char_traits@D@std@@V?$allocator@D@2@@0@H@Z" = comdat any

$"\01??$end@D$0BF@@std@@YAPEADAEAY0BF@D@Z" = comdat any

$"\01??$_UIntegral_to_buff@DI@std@@YAPEADPEADI@Z" = comdat any

$"\01??0?$allocator@D@std@@QEAA@XZ" = comdat any

$"\01??$?0PEADX@?$basic_string@DU?$char_traits@D@std@@V?$allocator@D@2@@std@@QEAA@PEAD0AEBV?$allocator@D@1@@Z" = comdat any

$"\01??$?0AEBV?$allocator@D@std@@X@?$_String_alloc@U?$_String_base_types@DV?$allocator@D@std@@@std@@@std@@QEAA@AEBV?$allocator@D@1@@Z" = comdat any

$"\01??$_Adl_verify_range@PEADPEAD@std@@YAXAEBQEAD0@Z" = comdat any

$"\01??$_Get_unwrapped@D@std@@YAPEADQEAD@Z" = comdat any

$"\01?_Construct@?$basic_string@DU?$char_traits@D@std@@V?$allocator@D@2@@std@@QEAAXQEAD0Urandom_access_iterator_tag@2@@Z" = comdat any

$"\01?assign@?$basic_string@DU?$char_traits@D@std@@V?$allocator@D@2@@std@@QEAAAEAV12@QEBD_K@Z" = comdat any

$"\01??$_Reallocate_for@V<lambda_1>@?0??assign@?$basic_string@DU?$char_traits@D@std@@V?$allocator@D@2@@std@@QEAAAEAV34@QEBD_K@Z@PEBD@?$basic_string@DU?$char_traits@D@std@@V?$allocator@D@2@@std@@QEAAAEAV01@_KV<lambda_1>@?0??assign@01@QEAAAEAV01@QEBD0@Z@PEBD@Z" = comdat any

$"\01??R<lambda_1>@?0??assign@?$basic_string@DU?$char_traits@D@std@@V?$allocator@D@2@@std@@QEAAAEAV23@QEBD_K@Z@QEBA?A?<auto>@@QEAD10@Z" = comdat any

$"\01??$_Adl_verify_range1@PEADPEAD@std@@YAXAEBQEAD0U?$integral_constant@_N$0A@@0@@Z" = comdat any

$"\01??$forward@AEBV?$allocator@D@std@@@std@@YAAEBV?$allocator@D@0@AEBV10@@Z" = comdat any

$"\01??$?0AEBV?$allocator@D@std@@$$V@?$_Compressed_pair@V?$allocator@D@std@@V?$_String_val@U?$_Simple_types@D@std@@@2@$00@std@@QEAA@U_One_then_variadic_args_t@1@AEBV?$allocator@D@1@@Z" = comdat any

$_vfprintf_l = comdat any

$__local_stdio_printf_options = comdat any

$"\01??0MessageLite@protobuf@google@@QEAA@XZ" = comdat any

$"\01??0InternalMetadataWithArenaLite@internal@protobuf@google@@QEAA@PEAVArena@23@@Z" = comdat any

$"\01?internal_default_instance@Foo@simpleproto2@@SAPEBV12@XZ" = comdat any

$"\01??1InternalMetadataWithArenaLite@internal@protobuf@google@@QEAA@XZ" = comdat any

$"\01??1MessageLite@protobuf@google@@UEAA@XZ" = comdat any

$"\01??1?$InternalMetadataWithArenaBase@V?$basic_string@DU?$char_traits@D@std@@V?$allocator@D@2@@std@@VInternalMetadataWithArenaLite@internal@protobuf@google@@@internal@protobuf@google@@QEAA@XZ" = comdat any

$"\01?have_unknown_fields@?$InternalMetadataWithArenaBase@V?$basic_string@DU?$char_traits@D@std@@V?$allocator@D@2@@std@@VInternalMetadataWithArenaLite@internal@protobuf@google@@@internal@protobuf@google@@QEBA_NXZ" = comdat any

$"\01?arena@?$InternalMetadataWithArenaBase@V?$basic_string@DU?$char_traits@D@std@@V?$allocator@D@2@@std@@VInternalMetadataWithArenaLite@internal@protobuf@google@@@internal@protobuf@google@@QEBAPEAVArena@34@XZ" = comdat any

$"\01??$PtrValue@UContainer@?$InternalMetadataWithArenaBase@V?$basic_string@DU?$char_traits@D@std@@V?$allocator@D@2@@std@@VInternalMetadataWithArenaLite@internal@protobuf@google@@@internal@protobuf@google@@@?$InternalMetadataWithArenaBase@V?$basic_string@DU?$char_traits@D@std@@V?$allocator@D@2@@std@@VInternalMetadataWithArenaLite@internal@protobuf@google@@@internal@protobuf@google@@AEBAPEAUContainer@0123@XZ" = comdat any

$"\01??1Container@?$InternalMetadataWithArenaBase@V?$basic_string@DU?$char_traits@D@std@@V?$allocator@D@2@@std@@VInternalMetadataWithArenaLite@internal@protobuf@google@@@internal@protobuf@google@@QEAA@XZ" = comdat any

$"\01??$PtrValue@VArena@protobuf@google@@@?$InternalMetadataWithArenaBase@V?$basic_string@DU?$char_traits@D@std@@V?$allocator@D@2@@std@@VInternalMetadataWithArenaLite@internal@protobuf@google@@@internal@protobuf@google@@AEBAPEAVArena@23@XZ" = comdat any

$"\01?PtrTag@?$InternalMetadataWithArenaBase@V?$basic_string@DU?$char_traits@D@std@@V?$allocator@D@2@@std@@VInternalMetadataWithArenaLite@internal@protobuf@google@@@internal@protobuf@google@@AEBAHXZ" = comdat any

$"\01?UnsafeSetDefault@ArenaStringPtr@internal@protobuf@google@@QEAAXPEBV?$basic_string@DU?$char_traits@D@std@@V?$allocator@D@2@@std@@@Z" = comdat any

$"\01?GoogleOnceInit@protobuf@google@@YAXPEA_JP6AXXZ@Z" = comdat any

$"\01?Acquire_Load@internal@protobuf@google@@YA_JPED_J@Z" = comdat any

$"\01??0FunctionClosure0@internal@protobuf@google@@QEAA@P6AXXZ_N@Z" = comdat any

$"\01??0Closure@protobuf@google@@QEAA@XZ" = comdat any

$"\01??_GFunctionClosure0@internal@protobuf@google@@UEAAPEAXI@Z" = comdat any

$"\01?Run@FunctionClosure0@internal@protobuf@google@@UEAAXXZ" = comdat any

$"\01??_GClosure@protobuf@google@@UEAAPEAXI@Z" = comdat any

$"\01??0?$InternalMetadataWithArenaBase@V?$basic_string@DU?$char_traits@D@std@@V?$allocator@D@2@@std@@VInternalMetadataWithArenaLite@internal@protobuf@google@@@internal@protobuf@google@@QEAA@PEAVArena@23@@Z" = comdat any

$"\01??_GFoo@simpleproto2@@UEAAPEAXI@Z" = comdat any

$"\01?New@Foo@simpleproto2@@UEBAPEAV12@XZ" = comdat any

$"\01?GetArena@MessageLite@protobuf@google@@UEBAPEAVArena@23@XZ" = comdat any

$"\01?GetMaybeArenaPointer@MessageLite@protobuf@google@@UEBAPEAXXZ" = comdat any

$"\01?GetCachedSize@Foo@simpleproto2@@UEBAHXZ" = comdat any

$"\01?InternalGetTable@MessageLite@protobuf@google@@EEBAPEBXXZ" = comdat any

$"\01?f@Foo@simpleproto2@@QEBAMXZ" = comdat any

$"\01?s@Foo@simpleproto2@@QEBAAEBV?$basic_string@DU?$char_traits@D@std@@V?$allocator@D@2@@std@@XZ" = comdat any

$"\01?length@?$basic_string@DU?$char_traits@D@std@@V?$allocator@D@2@@std@@QEBA_KXZ" = comdat any

$"\01?data@?$basic_string@DU?$char_traits@D@std@@V?$allocator@D@2@@std@@QEBAPEBDXZ" = comdat any

$"\01?GetProto3PreserveUnknownsDefault@internal@protobuf@google@@YA_NXZ" = comdat any

$"\01?unknown_fields@?$InternalMetadataWithArenaBase@V?$basic_string@DU?$char_traits@D@std@@V?$allocator@D@2@@std@@VInternalMetadataWithArenaLite@internal@protobuf@google@@@internal@protobuf@google@@QEBAAEBV?$basic_string@DU?$char_traits@D@std@@V?$allocator@D@2@@std@@XZ" = comdat any

$"\01?default_instance@InternalMetadataWithArenaLite@internal@protobuf@google@@SAAEBV?$basic_string@DU?$char_traits@D@std@@V?$allocator@D@2@@std@@XZ" = comdat any

$"\01?GetNoArena@ArenaStringPtr@internal@protobuf@google@@QEBAAEBV?$basic_string@DU?$char_traits@D@std@@V?$allocator@D@2@@std@@XZ" = comdat any

$"\01?StringSize@WireFormatLite@internal@protobuf@google@@SA_KAEBV?$basic_string@DU?$char_traits@D@std@@V?$allocator@D@2@@std@@@Z" = comdat any

$"\01?Int32Size@WireFormatLite@internal@protobuf@google@@SA_KH@Z" = comdat any

$"\01?ToCachedSize@internal@protobuf@google@@YAH_K@Z" = comdat any

$"\01?VarintSize32SignExtended@CodedOutputStream@io@protobuf@google@@SA_KH@Z" = comdat any

$"\01?VarintSize32@CodedOutputStream@io@protobuf@google@@SA_KI@Z" = comdat any

$"\01?Log2FloorNonZero@Bits@protobuf@google@@SAII@Z" = comdat any

$"\01?Log2FloorNonZero_Portable@Bits@protobuf@google@@CAHI@Z" = comdat any

$"\01?LengthDelimitedSize@WireFormatLite@internal@protobuf@google@@SA_K_K@Z" = comdat any

$"\01??0LiteUnknownFieldSetter@internal@protobuf@google@@QEAA@PEAVInternalMetadataWithArenaLite@123@@Z" = comdat any

$"\01?buffer@LiteUnknownFieldSetter@internal@protobuf@google@@QEAAPEAV?$basic_string@DU?$char_traits@D@std@@V?$allocator@D@2@@std@@XZ" = comdat any

$"\01?ReadTagWithCutoffNoLastTag@CodedInputStream@io@protobuf@google@@QEAA?AU?$pair@I_N@std@@I@Z" = comdat any

$"\01?GetTagFieldNumber@WireFormatLite@internal@protobuf@google@@SAHI@Z" = comdat any

$"\01??$ReadPrimitive@H$04@WireFormatLite@internal@protobuf@google@@SA_NPEAVCodedInputStream@io@23@PEAH@Z" = comdat any

$"\01??$ReadPrimitive@M$01@WireFormatLite@internal@protobuf@google@@SA_NPEAVCodedInputStream@io@23@PEAM@Z" = comdat any

$"\01?mutable_s@Foo@simpleproto2@@QEAAPEAV?$basic_string@DU?$char_traits@D@std@@V?$allocator@D@2@@std@@XZ" = comdat any

$"\01?ReadString@WireFormatLite@internal@protobuf@google@@SA_NPEAVCodedInputStream@io@34@PEAV?$basic_string@DU?$char_traits@D@std@@V?$allocator@D@2@@std@@@Z" = comdat any

$"\01??1StringOutputStream@io@protobuf@google@@UEAA@XZ" = comdat any

$"\01??1LiteUnknownFieldSetter@internal@protobuf@google@@QEAA@XZ" = comdat any

$"\01?empty@?$basic_string@DU?$char_traits@D@std@@V?$allocator@D@2@@std@@QEBA_NXZ" = comdat any

$"\01?mutable_unknown_fields@?$InternalMetadataWithArenaBase@V?$basic_string@DU?$char_traits@D@std@@V?$allocator@D@2@@std@@VInternalMetadataWithArenaLite@internal@protobuf@google@@@internal@protobuf@google@@QEAAPEAV?$basic_string@DU?$char_traits@D@std@@V?$allocator@D@2@@std@@XZ" = comdat any

$"\01?swap@?$basic_string@DU?$char_traits@D@std@@V?$allocator@D@2@@std@@QEAAXAEAV12@@Z" = comdat any

$"\01??$_Pocs@V?$allocator@D@std@@@std@@YAXAEAV?$allocator@D@0@0@Z" = comdat any

$"\01?_Swap_data@?$basic_string@DU?$char_traits@D@std@@V?$allocator@D@2@@std@@QEAAXAEAV12@U?$integral_constant@_N$00@2@@Z" = comdat any

$"\01??$_Pocs@V?$allocator@D@std@@@std@@YAXAEAV?$allocator@D@0@0U?$integral_constant@_N$0A@@0@@Z" = comdat any

$"\01?mutable_unknown_fields_slow@?$InternalMetadataWithArenaBase@V?$basic_string@DU?$char_traits@D@std@@V?$allocator@D@2@@std@@VInternalMetadataWithArenaLite@internal@protobuf@google@@@internal@protobuf@google@@AEAAPEAV?$basic_string@DU?$char_traits@D@std@@V?$allocator@D@2@@std@@XZ" = comdat any

$"\01??$Create@UContainer@?$InternalMetadataWithArenaBase@V?$basic_string@DU?$char_traits@D@std@@V?$allocator@D@2@@std@@VInternalMetadataWithArenaLite@internal@protobuf@google@@@internal@protobuf@google@@@Arena@protobuf@google@@SAPEAUContainer@?$InternalMetadataWithArenaBase@V?$basic_string@DU?$char_traits@D@std@@V?$allocator@D@2@@std@@VInternalMetadataWithArenaLite@internal@protobuf@google@@@internal@12@PEAV012@@Z" = comdat any

$"\01??0Container@?$InternalMetadataWithArenaBase@V?$basic_string@DU?$char_traits@D@std@@V?$allocator@D@2@@std@@VInternalMetadataWithArenaLite@internal@protobuf@google@@@internal@protobuf@google@@QEAA@XZ" = comdat any

$"\01??$CreateInternal@UContainer@?$InternalMetadataWithArenaBase@V?$basic_string@DU?$char_traits@D@std@@V?$allocator@D@2@@std@@VInternalMetadataWithArenaLite@internal@protobuf@google@@@internal@protobuf@google@@$$V@Arena@protobuf@google@@AEAAPEAUContainer@?$InternalMetadataWithArenaBase@V?$basic_string@DU?$char_traits@D@std@@V?$allocator@D@2@@std@@VInternalMetadataWithArenaLite@internal@protobuf@google@@@internal@12@_N@Z" = comdat any

$"\01??$AllocateInternal@UContainer@?$InternalMetadataWithArenaBase@V?$basic_string@DU?$char_traits@D@std@@V?$allocator@D@2@@std@@VInternalMetadataWithArenaLite@internal@protobuf@google@@@internal@protobuf@google@@@Arena@protobuf@google@@AEAAPEAX_N@Z" = comdat any

$"\01?AlignUpTo8@internal@protobuf@google@@YA_K_K@Z" = comdat any

$"\01?AllocHook@Arena@protobuf@google@@AEBAXPEBVtype_info@@_K@Z" = comdat any

$"\01??$arena_destruct_object@UContainer@?$InternalMetadataWithArenaBase@V?$basic_string@DU?$char_traits@D@std@@V?$allocator@D@2@@std@@VInternalMetadataWithArenaLite@internal@protobuf@google@@@internal@protobuf@google@@@internal@protobuf@google@@YAXPEAX@Z" = comdat any

$"\01??0?$basic_string@DU?$char_traits@D@std@@V?$allocator@D@2@@std@@QEAA@XZ" = comdat any

$"\01??0?$_String_alloc@U?$_String_base_types@DV?$allocator@D@std@@@std@@@std@@QEAA@XZ" = comdat any

$"\01??$?0$$V@?$_Compressed_pair@V?$allocator@D@std@@V?$_String_val@U?$_Simple_types@D@std@@@2@$00@std@@QEAA@U_Zero_then_variadic_args_t@1@@Z" = comdat any

$"\01??1ZeroCopyOutputStream@io@protobuf@google@@UEAA@XZ" = comdat any

$"\01?MutableNoArena@ArenaStringPtr@internal@protobuf@google@@QEAAPEAV?$basic_string@DU?$char_traits@D@std@@V?$allocator@D@2@@std@@PEBV56@@Z" = comdat any

$"\01?CreateInstanceNoArena@ArenaStringPtr@internal@protobuf@google@@AEAAXPEBV?$basic_string@DU?$char_traits@D@std@@V?$allocator@D@2@@std@@@Z" = comdat any

$"\01??0?$basic_string@DU?$char_traits@D@std@@V?$allocator@D@2@@std@@QEAA@AEBV01@@Z" = comdat any

$"\01?select_on_container_copy_construction@?$_Default_allocator_traits@V?$allocator@D@std@@@std@@SA?AV?$allocator@D@2@AEBV32@@Z" = comdat any

$"\01?_Construct_lv_contents@?$basic_string@DU?$char_traits@D@std@@V?$allocator@D@2@@std@@QEAAXAEBV12@@Z" = comdat any

$"\01?ReadLittleEndian32@CodedInputStream@io@protobuf@google@@QEAA_NPEAI@Z" = comdat any

$"\01?DecodeFloat@WireFormatLite@internal@protobuf@google@@SAMI@Z" = comdat any

$"\01?BufferSize@CodedInputStream@io@protobuf@google@@AEBAHXZ" = comdat any

$"\01?ReadLittleEndian32FromArray@CodedInputStream@io@protobuf@google@@SAPEBEPEBEPEAI@Z" = comdat any

$"\01?ReadVarint32@CodedInputStream@io@protobuf@google@@QEAA_NPEAI@Z" = comdat any

$"\01?Advance@CodedInputStream@io@protobuf@google@@AEAAXH@Z" = comdat any

$"\01??$make_pair@AEAI_N@std@@YA?AU?$pair@I_N@0@AEAI$$QEA_N@Z" = comdat any

$"\01??$make_pair@AEAIAEA_N@std@@YA?AU?$pair@I_N@0@AEAIAEA_N@Z" = comdat any

$"\01??$make_pair@AEBI_N@std@@YA?AU?$pair@I_N@0@AEBI$$QEA_N@Z" = comdat any

$"\01??$forward@_N@std@@YA$$QEA_NAEA_N@Z" = comdat any

$"\01??$forward@AEBI@std@@YAAEBIAEBI@Z" = comdat any

$"\01??$?0AEBI_N$0A@@?$pair@I_N@std@@QEAA@AEBI$$QEA_N@Z" = comdat any

$"\01??$forward@AEA_N@std@@YAAEA_NAEA_N@Z" = comdat any

$"\01??$forward@AEAI@std@@YAAEAIAEAI@Z" = comdat any

$"\01??$?0AEAIAEA_N$0A@@?$pair@I_N@std@@QEAA@AEAIAEA_N@Z" = comdat any

$"\01??$?0AEAI_N$0A@@?$pair@I_N@std@@QEAA@AEAI$$QEA_N@Z" = comdat any

$"\01??$down_cast@PEBVFoo@simpleproto2@@$$CBVMessageLite@protobuf@google@@@internal@protobuf@google@@YAPEBVFoo@simpleproto2@@PEBVMessageLite@12@@Z" = comdat any

$"\01?MergeFrom@?$InternalMetadataWithArenaBase@V?$basic_string@DU?$char_traits@D@std@@V?$allocator@D@2@@std@@VInternalMetadataWithArenaLite@internal@protobuf@google@@@internal@protobuf@google@@QEAAXAEBVInternalMetadataWithArenaLite@234@@Z" = comdat any

$"\01?AssignWithDefault@ArenaStringPtr@internal@protobuf@google@@QEAAXPEBV?$basic_string@DU?$char_traits@D@std@@V?$allocator@D@2@@std@@U1234@@Z" = comdat any

$"\01?UnsafeRawStringPointer@ArenaStringPtr@internal@protobuf@google@@QEAAPEAPEAV?$basic_string@DU?$char_traits@D@std@@V?$allocator@D@2@@std@@XZ" = comdat any

$"\01?SetNoArena@ArenaStringPtr@internal@protobuf@google@@QEAAXPEBV?$basic_string@DU?$char_traits@D@std@@V?$allocator@D@2@@std@@AEBV56@@Z" = comdat any

$"\01??4?$basic_string@DU?$char_traits@D@std@@V?$allocator@D@2@@std@@QEAAAEAV01@AEBV01@@Z" = comdat any

$"\01??$addressof@$$CBV?$basic_string@DU?$char_traits@D@std@@V?$allocator@D@2@@std@@@std@@YAPEBV?$basic_string@DU?$char_traits@D@std@@V?$allocator@D@2@@0@AEBV10@@Z" = comdat any

$"\01?_Copy_alloc@?$_String_alloc@U?$_String_base_types@DV?$allocator@D@std@@@std@@@std@@QEAAXAEBV?$allocator@D@2@@Z" = comdat any

$"\01??$_Pocca@V?$allocator@D@std@@@std@@YAXAEAV?$allocator@D@0@AEBV10@@Z" = comdat any

$"\01??$_Pocca@V?$allocator@D@std@@@std@@YAXAEAV?$allocator@D@0@AEBV10@U?$integral_constant@_N$0A@@0@@Z" = comdat any

$"\01?DoMergeFrom@InternalMetadataWithArenaLite@internal@protobuf@google@@QEAAXAEBV?$basic_string@DU?$char_traits@D@std@@V?$allocator@D@2@@std@@@Z" = comdat any

$"\01?ClearToEmptyNoArena@ArenaStringPtr@internal@protobuf@google@@QEAAXPEBV?$basic_string@DU?$char_traits@D@std@@V?$allocator@D@2@@std@@@Z" = comdat any

$"\01?Clear@?$InternalMetadataWithArenaBase@V?$basic_string@DU?$char_traits@D@std@@V?$allocator@D@2@@std@@VInternalMetadataWithArenaLite@internal@protobuf@google@@@internal@protobuf@google@@QEAAXXZ" = comdat any

$"\01?DoClear@InternalMetadataWithArenaLite@internal@protobuf@google@@QEAAXXZ" = comdat any

$"\01?clear@?$basic_string@DU?$char_traits@D@std@@V?$allocator@D@2@@std@@QEAAXXZ" = comdat any

$"\01?_Eos@?$basic_string@DU?$char_traits@D@std@@V?$allocator@D@2@@std@@QEAAX_K@Z" = comdat any

$"\01??$Own@VFoo@simpleproto2@@@Arena@protobuf@google@@QEAAXPEAVFoo@simpleproto2@@@Z" = comdat any

$"\01??$OwnInternal@VFoo@simpleproto2@@@Arena@protobuf@google@@AEAAXPEAVFoo@simpleproto2@@U?$integral_constant@_N$0A@@internal@12@@Z" = comdat any

$"\01??$arena_delete_object@VFoo@simpleproto2@@@internal@protobuf@google@@YAXPEAX@Z" = comdat any

$"\01??0?$basic_string@DU?$char_traits@D@std@@V?$allocator@D@2@@std@@QEAA@QEBD@Z" = comdat any

$"\01?assign@?$basic_string@DU?$char_traits@D@std@@V?$allocator@D@2@@std@@QEAAAEAV12@QEBD@Z" = comdat any

$"\01?DestroyNoArena@ArenaStringPtr@internal@protobuf@google@@QEAAXPEBV?$basic_string@DU?$char_traits@D@std@@V?$allocator@D@2@@std@@@Z" = comdat any

$"\01??_GMessageLite@protobuf@google@@UEAAPEAXI@Z" = comdat any

$"\01?get_mutable@?$ExplicitlyConstructed@VBar@simpleproto2@@@internal@protobuf@google@@QEAAPEAVBar@simpleproto2@@XZ" = comdat any

$"\01?internal_default_instance@Bar@simpleproto2@@SAPEBV12@XZ" = comdat any

$"\01??_GBar@simpleproto2@@UEAAPEAXI@Z" = comdat any

$"\01?New@Bar@simpleproto2@@UEBAPEAV12@XZ" = comdat any

$"\01?GetCachedSize@Bar@simpleproto2@@UEBAHXZ" = comdat any

$"\01?has_foo@Bar@simpleproto2@@QEBA_NXZ" = comdat any

$"\01?f@Bar@simpleproto2@@QEBAMXZ" = comdat any

$"\01?MessageSize@WireFormatLite@internal@protobuf@google@@SA_KAEBVMessageLite@34@@Z" = comdat any

$"\01?mutable_foo@Bar@simpleproto2@@QEAAPEAVFoo@2@XZ" = comdat any

$"\01?ReadMessage@WireFormatLite@internal@protobuf@google@@SA_NPEAVCodedInputStream@io@34@PEAVMessageLite@34@@Z" = comdat any

$"\01?ReadVarintSizeAsInt@CodedInputStream@io@protobuf@google@@QEAA_NPEAH@Z" = comdat any

$"\01??$down_cast@PEBVBar@simpleproto2@@$$CBVMessageLite@protobuf@google@@@internal@protobuf@google@@YAPEBVBar@simpleproto2@@PEBVMessageLite@12@@Z" = comdat any

$"\01?set_f@Bar@simpleproto2@@QEAAXM@Z" = comdat any

$"\01??$Own@VBar@simpleproto2@@@Arena@protobuf@google@@QEAAXPEAVBar@simpleproto2@@@Z" = comdat any

$"\01??$OwnInternal@VBar@simpleproto2@@@Arena@protobuf@google@@AEAAXPEAVBar@simpleproto2@@U?$integral_constant@_N$0A@@internal@12@@Z" = comdat any

$"\01??$arena_delete_object@VBar@simpleproto2@@@internal@protobuf@google@@YAXPEAX@Z" = comdat any

$"\01?Swap@ArenaStringPtr@internal@protobuf@google@@QEAAXPEAU1234@@Z" = comdat any

$"\01??$swap@HX@std@@YAXAEAH0@Z" = comdat any

$"\01??$swap@MX@std@@YAXAEAM0@Z" = comdat any

$"\01?Swap@?$InternalMetadataWithArenaBase@V?$basic_string@DU?$char_traits@D@std@@V?$allocator@D@2@@std@@VInternalMetadataWithArenaLite@internal@protobuf@google@@@internal@protobuf@google@@QEAAXPEAVInternalMetadataWithArenaLite@234@@Z" = comdat any

$"\01?DoSwap@InternalMetadataWithArenaLite@internal@protobuf@google@@QEAAXPEAV?$basic_string@DU?$char_traits@D@std@@V?$allocator@D@2@@std@@@Z" = comdat any

$"\01??$move@AEAM@std@@YA$$QEAMAEAM@Z" = comdat any

$"\01??$move@AEAH@std@@YA$$QEAHAEAH@Z" = comdat any

$"\01??$swap@PEAV?$basic_string@DU?$char_traits@D@std@@V?$allocator@D@2@@std@@X@std@@YAXAEAPEAV?$basic_string@DU?$char_traits@D@std@@V?$allocator@D@2@@0@0@Z" = comdat any

$"\01??$move@AEAPEAV?$basic_string@DU?$char_traits@D@std@@V?$allocator@D@2@@std@@@std@@YA$$QEAPEAV?$basic_string@DU?$char_traits@D@std@@V?$allocator@D@2@@0@AEAPEAV10@@Z" = comdat any

$"\01??$swap@PEAVFoo@simpleproto2@@X@std@@YAXAEAPEAVFoo@simpleproto2@@0@Z" = comdat any

$"\01??$move@AEAPEAVFoo@simpleproto2@@@std@@YA$$QEAPEAVFoo@simpleproto2@@AEAPEAV12@@Z" = comdat any

$"\01??_C@_0BK@LFKNAHKK@?$CFs?5Bar?5Alice?3?5?$CFd?5Bob?3?5?$CFd?6?$AA@" = comdat any

$"\01??_C@_0N@HIDNCOAG@TestBarAdd01?$AA@" = comdat any

$"\01??_C@_0BO@PNMFCEHC@?$CFs?5Bar?4Foo?5Alice?3?5?$CFd?5Bob?3?5?$CFd?6?$AA@" = comdat any

$"\01??_C@_0BL@PIAAFKJK@?$CFs?5result?$CI?$DNAlice?$CLBob?$CJ?3?5?$CFd?6?$AA@" = comdat any

$"\01??_C@_0CD@JNLOMIBB@?$CFs?5Bar?4Foo?5result?$CI?$DNAlice?$CLBob?$CJ?3?5?$CF@" = comdat any

$"\01??_C@_0BF@MJKDIDP@this?5is?5foo?5result?3?5?$AA@" = comdat any

$"\01??_C@_01MIFGBAGJ@?$CL?$AA@" = comdat any

$"\01??_C@_01NEMOKFLO@?$DN?$AA@" = comdat any

$"\01??_C@_0BA@JFNIOLAK@string?5too?5long?$AA@" = comdat any

$"\01??_C@_0BI@CFPLBAOH@invalid?5string?5position?$AA@" = comdat any

$"\01?_OptionsStorage@?1??__local_stdio_printf_options@@9@4_KA" = comdat any

$"\01??_C@_0EO@CHGOICEJ@E?3?2work?2local?2private?9contract?9s@" = comdat any

$"\01??_7FunctionClosure0@internal@protobuf@google@@6B@" = comdat largest

$"\01??_R4FunctionClosure0@internal@protobuf@google@@6B@" = comdat any

$"\01??_R0?AVFunctionClosure0@internal@protobuf@google@@@8" = comdat any

$"\01??_R3FunctionClosure0@internal@protobuf@google@@8" = comdat any

$"\01??_R2FunctionClosure0@internal@protobuf@google@@8" = comdat any

$"\01??_R1A@?0A@EA@FunctionClosure0@internal@protobuf@google@@8" = comdat any

$"\01??_R1A@?0A@EA@Closure@protobuf@google@@8" = comdat any

$"\01??_R0?AVClosure@protobuf@google@@@8" = comdat any

$"\01??_R3Closure@protobuf@google@@8" = comdat any

$"\01??_R2Closure@protobuf@google@@8" = comdat any

$"\01??_7Closure@protobuf@google@@6B@" = comdat largest

$"\01??_R4Closure@protobuf@google@@6B@" = comdat any

$"\01??_7Foo@simpleproto2@@6B@" = comdat largest

$"\01??_R4Foo@simpleproto2@@6B@" = comdat any

$"\01??_C@_0BD@FCHDFINE@simpleproto2?4Foo?4s?$AA@" = comdat any

$"\01??_C@_1BG@GNOBELO@?$AAv?$AAa?$AAl?$AAu?$AAe?$AA?5?$AA?$DN?$AA?$DN?$AA?5?$AA1?$AA?$AA@" = comdat any

$"\01??_C@_1DO@LBGGJBBB@?$AA?4?$AA?2?$AAg?$AAo?$AAo?$AAg?$AAl?$AAe?$AA?1?$AAp?$AAr?$AAo?$AAt?$AAo?$AAb?$AAu?$AAf?$AA?1?$AAs?$AAt?$AAu?$AAb?$AAs?$AA?1?$AAp?$AAo?$AAr?$AAt?$AA?4?$AAh?$AA?$AA@" = comdat any

$"\01??_R0?AUContainer@?$InternalMetadataWithArenaBase@V?$basic_string@DU?$char_traits@D@std@@V?$allocator@D@2@@std@@VInternalMetadataWithArenaLite@internal@protobuf@google@@@internal@protobuf@google@@@8" = comdat any

$"\01??_C@_0CA@OFDEGAMK@?4?2google?1protobuf?1arenastring?4h?$AA@" = comdat any

$"\01??_C@_0CG@ENGJCHJ@CHECK?5failed?3?5initial_value?5?$CB?$DN?5N@" = comdat any

$"\01??_C@_0CC@HENEHLPK@CHECK?5failed?3?5?$CI?$CGfrom?$CJ?5?$CB?$DN?5?$CIthis?$CJ?3@" = comdat any

$"\01??_R0?AVMessageLite@protobuf@google@@@8" = comdat any

$"\01??_R0?AVFoo@simpleproto2@@@8" = comdat any

$"\01??_C@_1FC@OHAEEMKM@?$AAf?$AA?5?$AA?$DN?$AA?$DN?$AA?5?$AAN?$AAU?$AAL?$AAL?$AA?5?$AA?$HM?$AA?$HM?$AA?5?$AAd?$AAy?$AAn?$AAa?$AAm?$AAi?$AAc?$AA_?$AAc?$AAa?$AAs?$AAt?$AA?$DM?$AAT?$AAo?$AA?$DO?$AA?$CI?$AAf?$AA?$CJ@" = comdat any

$"\01??_C@_1EA@KCLAHCKN@?$AA?4?$AA?2?$AAg?$AAo?$AAo?$AAg?$AAl?$AAe?$AA?1?$AAp?$AAr?$AAo?$AAt?$AAo?$AAb?$AAu?$AAf?$AA?1?$AAs?$AAt?$AAu?$AAb?$AAs?$AA?1?$AAc?$AAa?$AAs?$AAt?$AAs?$AA?4?$AAh?$AA?$AA@" = comdat any

$"\01??_C@_0BB@GHJBMFOJ@simpleproto2?4Foo?$AA@" = comdat any

$"\01??_R3Foo@simpleproto2@@8" = comdat any

$"\01??_R2Foo@simpleproto2@@8" = comdat any

$"\01??_R1A@?0A@EA@Foo@simpleproto2@@8" = comdat any

$"\01??_R1A@?0A@EA@MessageLite@protobuf@google@@8" = comdat any

$"\01??_R3MessageLite@protobuf@google@@8" = comdat any

$"\01??_R2MessageLite@protobuf@google@@8" = comdat any

$"\01??_7MessageLite@protobuf@google@@6B@" = comdat largest

$"\01??_R4MessageLite@protobuf@google@@6B@" = comdat any

$"\01??_7Bar@simpleproto2@@6B@" = comdat largest

$"\01??_R4Bar@simpleproto2@@6B@" = comdat any

$"\01??_R0?AVBar@simpleproto2@@@8" = comdat any

$"\01??_C@_0BB@BNABBDKI@simpleproto2?4Bar?$AA@" = comdat any

$"\01??_R3Bar@simpleproto2@@8" = comdat any

$"\01??_R2Bar@simpleproto2@@8" = comdat any

$"\01??_R1A@?0A@EA@Bar@simpleproto2@@8" = comdat any

@"\01??_C@_0BK@LFKNAHKK@?$CFs?5Bar?5Alice?3?5?$CFd?5Bob?3?5?$CFd?6?$AA@" = linkonce_odr unnamed_addr constant [26 x i8] c"%s Bar Alice: %d Bob: %d\0A\00", comdat, align 1
@"\01??_C@_0N@HIDNCOAG@TestBarAdd01?$AA@" = linkonce_odr unnamed_addr constant [13 x i8] c"TestBarAdd01\00", comdat, align 1
@"\01??_C@_0BO@PNMFCEHC@?$CFs?5Bar?4Foo?5Alice?3?5?$CFd?5Bob?3?5?$CFd?6?$AA@" = linkonce_odr unnamed_addr constant [30 x i8] c"%s Bar.Foo Alice: %d Bob: %d\0A\00", comdat, align 1
@"\01??_C@_0BL@PIAAFKJK@?$CFs?5result?$CI?$DNAlice?$CLBob?$CJ?3?5?$CFd?6?$AA@" = linkonce_odr unnamed_addr constant [27 x i8] c"%s result(=Alice+Bob): %d\0A\00", comdat, align 1
@"\01??_C@_0CD@JNLOMIBB@?$CFs?5Bar?4Foo?5result?$CI?$DNAlice?$CLBob?$CJ?3?5?$CF@" = linkonce_odr unnamed_addr constant [35 x i8] c"%s Bar.Foo result(=Alice+Bob): %d\0A\00", comdat, align 1
@"\01??_C@_0BF@MJKDIDP@this?5is?5foo?5result?3?5?$AA@" = linkonce_odr unnamed_addr constant [21 x i8] c"this is foo result: \00", comdat, align 1
@"\01??_C@_01MIFGBAGJ@?$CL?$AA@" = linkonce_odr unnamed_addr constant [2 x i8] c"+\00", comdat, align 1
@"\01??_C@_01NEMOKFLO@?$DN?$AA@" = linkonce_odr unnamed_addr constant [2 x i8] c"=\00", comdat, align 1
@"\01?fixed_address_empty_string@internal@protobuf@google@@3V?$ExplicitlyConstructed@V?$basic_string@DU?$char_traits@D@std@@V?$allocator@D@2@@std@@@123@A" = external global %"class.google::protobuf::internal::ExplicitlyConstructed", align 8
@"\01??_C@_0BA@JFNIOLAK@string?5too?5long?$AA@" = linkonce_odr unnamed_addr constant [16 x i8] c"string too long\00", comdat, align 1
@"\01??_C@_0BI@CFPLBAOH@invalid?5string?5position?$AA@" = linkonce_odr unnamed_addr constant [24 x i8] c"invalid string position\00", comdat, align 1
@"\01?_OptionsStorage@?1??__local_stdio_printf_options@@9@4_KA" = linkonce_odr global i64 0, comdat, align 8
@"\01?_Foo_default_instance_@simpleproto2@@3VFooDefaultTypeInternal@1@A" = global %"class.simpleproto2::FooDefaultTypeInternal" zeroinitializer, align 8
@"\01?_Bar_default_instance_@simpleproto2@@3VBarDefaultTypeInternal@1@A" = global %"class.simpleproto2::FooDefaultTypeInternal" zeroinitializer, align 8
@"\01??_C@_0EO@CHGOICEJ@E?3?2work?2local?2private?9contract?9s@" = linkonce_odr unnamed_addr constant [78 x i8] c"E:\5Cwork\5Clocal\5Cprivate-contract-sdk\5Cdoc\5Cmpc-ll\5Csrc\5Ccode\5CSimpleProtoLite2.pb.cc\00", comdat, align 1
@"\01?once@?1??InitDefaultsFoo@protobuf_SimpleProtoLite2_2eproto@@YAXXZ@4_JA" = internal global i64 0, align 8
@0 = private unnamed_addr constant { [3 x i8*] } { [3 x i8*] [i8* bitcast (%rtti.CompleteObjectLocator* @"\01??_R4FunctionClosure0@internal@protobuf@google@@6B@" to i8*), i8* bitcast (i8* (%"class.google::protobuf::internal::FunctionClosure0"*, i32)* @"\01??_GFunctionClosure0@internal@protobuf@google@@UEAAPEAXI@Z" to i8*), i8* bitcast (void (%"class.google::protobuf::internal::FunctionClosure0"*)* @"\01?Run@FunctionClosure0@internal@protobuf@google@@UEAAXXZ" to i8*)] }, comdat($"\01??_7FunctionClosure0@internal@protobuf@google@@6B@")
@"\01??_R4FunctionClosure0@internal@protobuf@google@@6B@" = linkonce_odr constant %rtti.CompleteObjectLocator { i32 1, i32 0, i32 0, i32 trunc (i64 sub nuw nsw (i64 ptrtoint (%rtti.TypeDescriptor47* @"\01??_R0?AVFunctionClosure0@internal@protobuf@google@@@8" to i64), i64 ptrtoint (i8* @__ImageBase to i64)) to i32), i32 trunc (i64 sub nuw nsw (i64 ptrtoint (%rtti.ClassHierarchyDescriptor* @"\01??_R3FunctionClosure0@internal@protobuf@google@@8" to i64), i64 ptrtoint (i8* @__ImageBase to i64)) to i32), i32 trunc (i64 sub nuw nsw (i64 ptrtoint (%rtti.CompleteObjectLocator* @"\01??_R4FunctionClosure0@internal@protobuf@google@@6B@" to i64), i64 ptrtoint (i8* @__ImageBase to i64)) to i32) }, comdat
@"\01??_R0?AVFunctionClosure0@internal@protobuf@google@@@8" = linkonce_odr global %rtti.TypeDescriptor47 { i8** @"\01??_7type_info@@6B@", i8* null, [48 x i8] c".?AVFunctionClosure0@internal@protobuf@google@@\00" }, comdat
@__ImageBase = external constant i8
@"\01??_R3FunctionClosure0@internal@protobuf@google@@8" = linkonce_odr constant %rtti.ClassHierarchyDescriptor { i32 0, i32 0, i32 2, i32 trunc (i64 sub nuw nsw (i64 ptrtoint ([3 x i32]* @"\01??_R2FunctionClosure0@internal@protobuf@google@@8" to i64), i64 ptrtoint (i8* @__ImageBase to i64)) to i32) }, comdat
@"\01??_R2FunctionClosure0@internal@protobuf@google@@8" = linkonce_odr constant [3 x i32] [i32 trunc (i64 sub nuw nsw (i64 ptrtoint (%rtti.BaseClassDescriptor* @"\01??_R1A@?0A@EA@FunctionClosure0@internal@protobuf@google@@8" to i64), i64 ptrtoint (i8* @__ImageBase to i64)) to i32), i32 trunc (i64 sub nuw nsw (i64 ptrtoint (%rtti.BaseClassDescriptor* @"\01??_R1A@?0A@EA@Closure@protobuf@google@@8" to i64), i64 ptrtoint (i8* @__ImageBase to i64)) to i32), i32 0], comdat
@"\01??_R1A@?0A@EA@FunctionClosure0@internal@protobuf@google@@8" = linkonce_odr constant %rtti.BaseClassDescriptor { i32 trunc (i64 sub nuw nsw (i64 ptrtoint (%rtti.TypeDescriptor47* @"\01??_R0?AVFunctionClosure0@internal@protobuf@google@@@8" to i64), i64 ptrtoint (i8* @__ImageBase to i64)) to i32), i32 1, i32 0, i32 -1, i32 0, i32 64, i32 trunc (i64 sub nuw nsw (i64 ptrtoint (%rtti.ClassHierarchyDescriptor* @"\01??_R3FunctionClosure0@internal@protobuf@google@@8" to i64), i64 ptrtoint (i8* @__ImageBase to i64)) to i32) }, comdat
@"\01??_R1A@?0A@EA@Closure@protobuf@google@@8" = linkonce_odr constant %rtti.BaseClassDescriptor { i32 trunc (i64 sub nuw nsw (i64 ptrtoint (%rtti.TypeDescriptor29* @"\01??_R0?AVClosure@protobuf@google@@@8" to i64), i64 ptrtoint (i8* @__ImageBase to i64)) to i32), i32 0, i32 0, i32 -1, i32 0, i32 64, i32 trunc (i64 sub nuw nsw (i64 ptrtoint (%rtti.ClassHierarchyDescriptor* @"\01??_R3Closure@protobuf@google@@8" to i64), i64 ptrtoint (i8* @__ImageBase to i64)) to i32) }, comdat
@"\01??_R0?AVClosure@protobuf@google@@@8" = linkonce_odr global %rtti.TypeDescriptor29 { i8** @"\01??_7type_info@@6B@", i8* null, [30 x i8] c".?AVClosure@protobuf@google@@\00" }, comdat
@"\01??_R3Closure@protobuf@google@@8" = linkonce_odr constant %rtti.ClassHierarchyDescriptor { i32 0, i32 0, i32 1, i32 trunc (i64 sub nuw nsw (i64 ptrtoint ([2 x i32]* @"\01??_R2Closure@protobuf@google@@8" to i64), i64 ptrtoint (i8* @__ImageBase to i64)) to i32) }, comdat
@"\01??_R2Closure@protobuf@google@@8" = linkonce_odr constant [2 x i32] [i32 trunc (i64 sub nuw nsw (i64 ptrtoint (%rtti.BaseClassDescriptor* @"\01??_R1A@?0A@EA@Closure@protobuf@google@@8" to i64), i64 ptrtoint (i8* @__ImageBase to i64)) to i32), i32 0], comdat
@"\01??_7type_info@@6B@" = external constant i8*
@1 = private unnamed_addr constant { [3 x i8*] } { [3 x i8*] [i8* bitcast (%rtti.CompleteObjectLocator* @"\01??_R4Closure@protobuf@google@@6B@" to i8*), i8* bitcast (i8* (%"class.google::protobuf::MessageLite"*, i32)* @"\01??_GClosure@protobuf@google@@UEAAPEAXI@Z" to i8*), i8* bitcast (void ()* @_purecall to i8*)] }, comdat($"\01??_7Closure@protobuf@google@@6B@")
@"\01??_R4Closure@protobuf@google@@6B@" = linkonce_odr constant %rtti.CompleteObjectLocator { i32 1, i32 0, i32 0, i32 trunc (i64 sub nuw nsw (i64 ptrtoint (%rtti.TypeDescriptor29* @"\01??_R0?AVClosure@protobuf@google@@@8" to i64), i64 ptrtoint (i8* @__ImageBase to i64)) to i32), i32 trunc (i64 sub nuw nsw (i64 ptrtoint (%rtti.ClassHierarchyDescriptor* @"\01??_R3Closure@protobuf@google@@8" to i64), i64 ptrtoint (i8* @__ImageBase to i64)) to i32), i32 trunc (i64 sub nuw nsw (i64 ptrtoint (%rtti.CompleteObjectLocator* @"\01??_R4Closure@protobuf@google@@6B@" to i64), i64 ptrtoint (i8* @__ImageBase to i64)) to i32) }, comdat
@2 = private unnamed_addr constant { [18 x i8*] } { [18 x i8*] [i8* bitcast (%rtti.CompleteObjectLocator* @"\01??_R4Foo@simpleproto2@@6B@" to i8*), i8* bitcast (i8* (%"class.simpleproto2::Foo.11"*, i32)* @"\01??_GFoo@simpleproto2@@UEAAPEAXI@Z" to i8*), i8* bitcast (void (%"class.simpleproto2::Foo.11"*, %"class.std::basic_string"*)* @"\01?GetTypeName@Foo@simpleproto2@@UEBA?AV?$basic_string@DU?$char_traits@D@std@@V?$allocator@D@2@@std@@XZ" to i8*), i8* bitcast (%"class.simpleproto2::Foo.11"* (%"class.simpleproto2::Foo.11"*, %"class.google::protobuf::Arena"*)* @"\01?New@Foo@simpleproto2@@UEBAPEAV12@PEAVArena@protobuf@google@@@Z" to i8*), i8* bitcast (%"class.simpleproto2::Foo.11"* (%"class.simpleproto2::Foo.11"*)* @"\01?New@Foo@simpleproto2@@UEBAPEAV12@XZ" to i8*), i8* bitcast (%"class.google::protobuf::Arena"* (%"class.google::protobuf::MessageLite"*)* @"\01?GetArena@MessageLite@protobuf@google@@UEBAPEAVArena@23@XZ" to i8*), i8* bitcast (i8* (%"class.google::protobuf::MessageLite"*)* @"\01?GetMaybeArenaPointer@MessageLite@protobuf@google@@UEBAPEAXXZ" to i8*), i8* bitcast (void (%"class.simpleproto2::Foo.11"*)* @"\01?Clear@Foo@simpleproto2@@UEAAXXZ" to i8*), i8* bitcast (i1 (%"class.simpleproto2::Foo.11"*)* @"\01?IsInitialized@Foo@simpleproto2@@UEBA_NXZ" to i8*), i8* bitcast (void (%"class.google::protobuf::MessageLite"*, %"class.std::basic_string"*)* @"\01?InitializationErrorString@MessageLite@protobuf@google@@UEBA?AV?$basic_string@DU?$char_traits@D@std@@V?$allocator@D@2@@std@@XZ" to i8*), i8* bitcast (void (%"class.simpleproto2::Foo.11"*, %"class.google::protobuf::MessageLite"*)* @"\01?CheckTypeAndMergeFrom@Foo@simpleproto2@@UEAAXAEBVMessageLite@protobuf@google@@@Z" to i8*), i8* bitcast (i1 (%"class.simpleproto2::Foo.11"*, %"class.google::protobuf::io::CodedInputStream"*)* @"\01?MergePartialFromCodedStream@Foo@simpleproto2@@UEAA_NPEAVCodedInputStream@io@protobuf@google@@@Z" to i8*), i8* bitcast (i64 (%"class.simpleproto2::Foo.11"*)* @"\01?ByteSizeLong@Foo@simpleproto2@@UEBA_KXZ" to i8*), i8* bitcast (void (%"class.simpleproto2::Foo.11"*, %"class.google::protobuf::io::CodedOutputStream"*)* @"\01?SerializeWithCachedSizes@Foo@simpleproto2@@UEBAXPEAVCodedOutputStream@io@protobuf@google@@@Z" to i8*), i8* bitcast (i8* (%"class.google::protobuf::MessageLite"*, i8*)* @"\01?SerializeWithCachedSizesToArray@MessageLite@protobuf@google@@UEBAPEAEPEAE@Z" to i8*), i8* bitcast (i32 (%"class.simpleproto2::Foo.11"*)* @"\01?GetCachedSize@Foo@simpleproto2@@UEBAHXZ" to i8*), i8* bitcast (i8* (%"class.google::protobuf::MessageLite"*, i1, i8*)* @"\01?InternalSerializeWithCachedSizesToArray@MessageLite@protobuf@google@@UEBAPEAE_NPEAE@Z" to i8*), i8* bitcast (i8* (%"class.google::protobuf::MessageLite"*)* @"\01?InternalGetTable@MessageLite@protobuf@google@@EEBAPEBXXZ" to i8*)] }, comdat($"\01??_7Foo@simpleproto2@@6B@")
@"\01??_R4Foo@simpleproto2@@6B@" = linkonce_odr constant %rtti.CompleteObjectLocator { i32 1, i32 0, i32 0, i32 trunc (i64 sub nuw nsw (i64 ptrtoint (%rtti.TypeDescriptor22* @"\01??_R0?AVFoo@simpleproto2@@@8" to i64), i64 ptrtoint (i8* @__ImageBase to i64)) to i32), i32 trunc (i64 sub nuw nsw (i64 ptrtoint (%rtti.ClassHierarchyDescriptor* @"\01??_R3Foo@simpleproto2@@8" to i64), i64 ptrtoint (i8* @__ImageBase to i64)) to i32), i32 trunc (i64 sub nuw nsw (i64 ptrtoint (%rtti.CompleteObjectLocator* @"\01??_R4Foo@simpleproto2@@6B@" to i64), i64 ptrtoint (i8* @__ImageBase to i64)) to i32) }, comdat
@"\01??_C@_0BD@FCHDFINE@simpleproto2?4Foo?4s?$AA@" = linkonce_odr unnamed_addr constant [19 x i8] c"simpleproto2.Foo.s\00", comdat, align 1
@"\01?proto3_preserve_unknown_@internal@protobuf@google@@3_NA" = external global i8, align 1
@"\01??_C@_1BG@GNOBELO@?$AAv?$AAa?$AAl?$AAu?$AAe?$AA?5?$AA?$DN?$AA?$DN?$AA?5?$AA1?$AA?$AA@" = linkonce_odr unnamed_addr constant [11 x i16] [i16 118, i16 97, i16 108, i16 117, i16 101, i16 32, i16 61, i16 61, i16 32, i16 49, i16 0], comdat, align 2
@"\01??_C@_1DO@LBGGJBBB@?$AA?4?$AA?2?$AAg?$AAo?$AAo?$AAg?$AAl?$AAe?$AA?1?$AAp?$AAr?$AAo?$AAt?$AAo?$AAb?$AAu?$AAf?$AA?1?$AAs?$AAt?$AAu?$AAb?$AAs?$AA?1?$AAp?$AAo?$AAr?$AAt?$AA?4?$AAh?$AA?$AA@" = linkonce_odr unnamed_addr constant [31 x i16] [i16 46, i16 92, i16 103, i16 111, i16 111, i16 103, i16 108, i16 101, i16 47, i16 112, i16 114, i16 111, i16 116, i16 111, i16 98, i16 117, i16 102, i16 47, i16 115, i16 116, i16 117, i16 98, i16 115, i16 47, i16 112, i16 111, i16 114, i16 116, i16 46, i16 104, i16 0], comdat, align 2
@"\01??_R0?AUContainer@?$InternalMetadataWithArenaBase@V?$basic_string@DU?$char_traits@D@std@@V?$allocator@D@2@@std@@VInternalMetadataWithArenaLite@internal@protobuf@google@@@internal@protobuf@google@@@8" = linkonce_odr global %rtti.TypeDescriptor192 { i8** @"\01??_7type_info@@6B@", i8* null, [193 x i8] c".?AUContainer@?$InternalMetadataWithArenaBase@V?$basic_string@DU?$char_traits@D@std@@V?$allocator@D@2@@std@@VInternalMetadataWithArenaLite@internal@protobuf@google@@@internal@protobuf@google@@\00" }, comdat
@"\01??_C@_0CA@OFDEGAMK@?4?2google?1protobuf?1arenastring?4h?$AA@" = linkonce_odr unnamed_addr constant [32 x i8] c".\5Cgoogle/protobuf/arenastring.h\00", comdat, align 1
@"\01??_C@_0CG@ENGJCHJ@CHECK?5failed?3?5initial_value?5?$CB?$DN?5N@" = linkonce_odr unnamed_addr constant [38 x i8] c"CHECK failed: initial_value != NULL: \00", comdat, align 1
@"\01??_C@_0CC@HENEHLPK@CHECK?5failed?3?5?$CI?$CGfrom?$CJ?5?$CB?$DN?5?$CIthis?$CJ?3@" = linkonce_odr unnamed_addr constant [34 x i8] c"CHECK failed: (&from) != (this): \00", comdat, align 1
@"\01??_R0?AVMessageLite@protobuf@google@@@8" = linkonce_odr global %rtti.TypeDescriptor33 { i8** @"\01??_7type_info@@6B@", i8* null, [34 x i8] c".?AVMessageLite@protobuf@google@@\00" }, comdat
@"\01??_R0?AVFoo@simpleproto2@@@8" = linkonce_odr global %rtti.TypeDescriptor22 { i8** @"\01??_7type_info@@6B@", i8* null, [23 x i8] c".?AVFoo@simpleproto2@@\00" }, comdat
@"\01??_C@_1FC@OHAEEMKM@?$AAf?$AA?5?$AA?$DN?$AA?$DN?$AA?5?$AAN?$AAU?$AAL?$AAL?$AA?5?$AA?$HM?$AA?$HM?$AA?5?$AAd?$AAy?$AAn?$AAa?$AAm?$AAi?$AAc?$AA_?$AAc?$AAa?$AAs?$AAt?$AA?$DM?$AAT?$AAo?$AA?$DO?$AA?$CI?$AAf?$AA?$CJ@" = linkonce_odr unnamed_addr constant [41 x i16] [i16 102, i16 32, i16 61, i16 61, i16 32, i16 78, i16 85, i16 76, i16 76, i16 32, i16 124, i16 124, i16 32, i16 100, i16 121, i16 110, i16 97, i16 109, i16 105, i16 99, i16 95, i16 99, i16 97, i16 115, i16 116, i16 60, i16 84, i16 111, i16 62, i16 40, i16 102, i16 41, i16 32, i16 33, i16 61, i16 32, i16 78, i16 85, i16 76, i16 76, i16 0], comdat, align 2
@"\01??_C@_1EA@KCLAHCKN@?$AA?4?$AA?2?$AAg?$AAo?$AAo?$AAg?$AAl?$AAe?$AA?1?$AAp?$AAr?$AAo?$AAt?$AAo?$AAb?$AAu?$AAf?$AA?1?$AAs?$AAt?$AAu?$AAb?$AAs?$AA?1?$AAc?$AAa?$AAs?$AAt?$AAs?$AA?4?$AAh?$AA?$AA@" = linkonce_odr unnamed_addr constant [32 x i16] [i16 46, i16 92, i16 103, i16 111, i16 111, i16 103, i16 108, i16 101, i16 47, i16 112, i16 114, i16 111, i16 116, i16 111, i16 98, i16 117, i16 102, i16 47, i16 115, i16 116, i16 117, i16 98, i16 115, i16 47, i16 99, i16 97, i16 115, i16 116, i16 115, i16 46, i16 104, i16 0], comdat, align 2
@"\01??_C@_0BB@GHJBMFOJ@simpleproto2?4Foo?$AA@" = linkonce_odr unnamed_addr constant [17 x i8] c"simpleproto2.Foo\00", comdat, align 1
@"\01??_R3Foo@simpleproto2@@8" = linkonce_odr constant %rtti.ClassHierarchyDescriptor { i32 0, i32 0, i32 2, i32 trunc (i64 sub nuw nsw (i64 ptrtoint ([3 x i32]* @"\01??_R2Foo@simpleproto2@@8" to i64), i64 ptrtoint (i8* @__ImageBase to i64)) to i32) }, comdat
@"\01??_R2Foo@simpleproto2@@8" = linkonce_odr constant [3 x i32] [i32 trunc (i64 sub nuw nsw (i64 ptrtoint (%rtti.BaseClassDescriptor* @"\01??_R1A@?0A@EA@Foo@simpleproto2@@8" to i64), i64 ptrtoint (i8* @__ImageBase to i64)) to i32), i32 trunc (i64 sub nuw nsw (i64 ptrtoint (%rtti.BaseClassDescriptor* @"\01??_R1A@?0A@EA@MessageLite@protobuf@google@@8" to i64), i64 ptrtoint (i8* @__ImageBase to i64)) to i32), i32 0], comdat
@"\01??_R1A@?0A@EA@Foo@simpleproto2@@8" = linkonce_odr constant %rtti.BaseClassDescriptor { i32 trunc (i64 sub nuw nsw (i64 ptrtoint (%rtti.TypeDescriptor22* @"\01??_R0?AVFoo@simpleproto2@@@8" to i64), i64 ptrtoint (i8* @__ImageBase to i64)) to i32), i32 1, i32 0, i32 -1, i32 0, i32 64, i32 trunc (i64 sub nuw nsw (i64 ptrtoint (%rtti.ClassHierarchyDescriptor* @"\01??_R3Foo@simpleproto2@@8" to i64), i64 ptrtoint (i8* @__ImageBase to i64)) to i32) }, comdat
@"\01??_R1A@?0A@EA@MessageLite@protobuf@google@@8" = linkonce_odr constant %rtti.BaseClassDescriptor { i32 trunc (i64 sub nuw nsw (i64 ptrtoint (%rtti.TypeDescriptor33* @"\01??_R0?AVMessageLite@protobuf@google@@@8" to i64), i64 ptrtoint (i8* @__ImageBase to i64)) to i32), i32 0, i32 0, i32 -1, i32 0, i32 64, i32 trunc (i64 sub nuw nsw (i64 ptrtoint (%rtti.ClassHierarchyDescriptor* @"\01??_R3MessageLite@protobuf@google@@8" to i64), i64 ptrtoint (i8* @__ImageBase to i64)) to i32) }, comdat
@"\01??_R3MessageLite@protobuf@google@@8" = linkonce_odr constant %rtti.ClassHierarchyDescriptor { i32 0, i32 0, i32 1, i32 trunc (i64 sub nuw nsw (i64 ptrtoint ([2 x i32]* @"\01??_R2MessageLite@protobuf@google@@8" to i64), i64 ptrtoint (i8* @__ImageBase to i64)) to i32) }, comdat
@"\01??_R2MessageLite@protobuf@google@@8" = linkonce_odr constant [2 x i32] [i32 trunc (i64 sub nuw nsw (i64 ptrtoint (%rtti.BaseClassDescriptor* @"\01??_R1A@?0A@EA@MessageLite@protobuf@google@@8" to i64), i64 ptrtoint (i8* @__ImageBase to i64)) to i32), i32 0], comdat
@3 = private unnamed_addr constant { [18 x i8*] } { [18 x i8*] [i8* bitcast (%rtti.CompleteObjectLocator* @"\01??_R4MessageLite@protobuf@google@@6B@" to i8*), i8* bitcast (i8* (%"class.google::protobuf::MessageLite"*, i32)* @"\01??_GMessageLite@protobuf@google@@UEAAPEAXI@Z" to i8*), i8* bitcast (void ()* @_purecall to i8*), i8* bitcast (%"class.google::protobuf::MessageLite"* (%"class.google::protobuf::MessageLite"*, %"class.google::protobuf::Arena"*)* @"\01?New@MessageLite@protobuf@google@@UEBAPEAV123@PEAVArena@23@@Z" to i8*), i8* bitcast (void ()* @_purecall to i8*), i8* bitcast (%"class.google::protobuf::Arena"* (%"class.google::protobuf::MessageLite"*)* @"\01?GetArena@MessageLite@protobuf@google@@UEBAPEAVArena@23@XZ" to i8*), i8* bitcast (i8* (%"class.google::protobuf::MessageLite"*)* @"\01?GetMaybeArenaPointer@MessageLite@protobuf@google@@UEBAPEAXXZ" to i8*), i8* bitcast (void ()* @_purecall to i8*), i8* bitcast (void ()* @_purecall to i8*), i8* bitcast (void (%"class.google::protobuf::MessageLite"*, %"class.std::basic_string"*)* @"\01?InitializationErrorString@MessageLite@protobuf@google@@UEBA?AV?$basic_string@DU?$char_traits@D@std@@V?$allocator@D@2@@std@@XZ" to i8*), i8* bitcast (void ()* @_purecall to i8*), i8* bitcast (void ()* @_purecall to i8*), i8* bitcast (void ()* @_purecall to i8*), i8* bitcast (void (%"class.google::protobuf::MessageLite"*, %"class.google::protobuf::io::CodedOutputStream"*)* @"\01?SerializeWithCachedSizes@MessageLite@protobuf@google@@UEBAXPEAVCodedOutputStream@io@23@@Z" to i8*), i8* bitcast (i8* (%"class.google::protobuf::MessageLite"*, i8*)* @"\01?SerializeWithCachedSizesToArray@MessageLite@protobuf@google@@UEBAPEAEPEAE@Z" to i8*), i8* bitcast (void ()* @_purecall to i8*), i8* bitcast (i8* (%"class.google::protobuf::MessageLite"*, i1, i8*)* @"\01?InternalSerializeWithCachedSizesToArray@MessageLite@protobuf@google@@UEBAPEAE_NPEAE@Z" to i8*), i8* bitcast (i8* (%"class.google::protobuf::MessageLite"*)* @"\01?InternalGetTable@MessageLite@protobuf@google@@EEBAPEBXXZ" to i8*)] }, comdat($"\01??_7MessageLite@protobuf@google@@6B@")
@"\01??_R4MessageLite@protobuf@google@@6B@" = linkonce_odr constant %rtti.CompleteObjectLocator { i32 1, i32 0, i32 0, i32 trunc (i64 sub nuw nsw (i64 ptrtoint (%rtti.TypeDescriptor33* @"\01??_R0?AVMessageLite@protobuf@google@@@8" to i64), i64 ptrtoint (i8* @__ImageBase to i64)) to i32), i32 trunc (i64 sub nuw nsw (i64 ptrtoint (%rtti.ClassHierarchyDescriptor* @"\01??_R3MessageLite@protobuf@google@@8" to i64), i64 ptrtoint (i8* @__ImageBase to i64)) to i32), i32 trunc (i64 sub nuw nsw (i64 ptrtoint (%rtti.CompleteObjectLocator* @"\01??_R4MessageLite@protobuf@google@@6B@" to i64), i64 ptrtoint (i8* @__ImageBase to i64)) to i32) }, comdat
@"\01?once@?1??InitDefaultsBar@protobuf_SimpleProtoLite2_2eproto@@YAXXZ@4_JA" = internal global i64 0, align 8
@4 = private unnamed_addr constant { [18 x i8*] } { [18 x i8*] [i8* bitcast (%rtti.CompleteObjectLocator* @"\01??_R4Bar@simpleproto2@@6B@" to i8*), i8* bitcast (i8* (%"class.simpleproto2::Bar.23"*, i32)* @"\01??_GBar@simpleproto2@@UEAAPEAXI@Z" to i8*), i8* bitcast (void (%"class.simpleproto2::Bar.23"*, %"class.std::basic_string"*)* @"\01?GetTypeName@Bar@simpleproto2@@UEBA?AV?$basic_string@DU?$char_traits@D@std@@V?$allocator@D@2@@std@@XZ" to i8*), i8* bitcast (%"class.simpleproto2::Bar.23"* (%"class.simpleproto2::Bar.23"*, %"class.google::protobuf::Arena"*)* @"\01?New@Bar@simpleproto2@@UEBAPEAV12@PEAVArena@protobuf@google@@@Z" to i8*), i8* bitcast (%"class.simpleproto2::Bar.23"* (%"class.simpleproto2::Bar.23"*)* @"\01?New@Bar@simpleproto2@@UEBAPEAV12@XZ" to i8*), i8* bitcast (%"class.google::protobuf::Arena"* (%"class.google::protobuf::MessageLite"*)* @"\01?GetArena@MessageLite@protobuf@google@@UEBAPEAVArena@23@XZ" to i8*), i8* bitcast (i8* (%"class.google::protobuf::MessageLite"*)* @"\01?GetMaybeArenaPointer@MessageLite@protobuf@google@@UEBAPEAXXZ" to i8*), i8* bitcast (void (%"class.simpleproto2::Bar.23"*)* @"\01?Clear@Bar@simpleproto2@@UEAAXXZ" to i8*), i8* bitcast (i1 (%"class.simpleproto2::Bar.23"*)* @"\01?IsInitialized@Bar@simpleproto2@@UEBA_NXZ" to i8*), i8* bitcast (void (%"class.google::protobuf::MessageLite"*, %"class.std::basic_string"*)* @"\01?InitializationErrorString@MessageLite@protobuf@google@@UEBA?AV?$basic_string@DU?$char_traits@D@std@@V?$allocator@D@2@@std@@XZ" to i8*), i8* bitcast (void (%"class.simpleproto2::Bar.23"*, %"class.google::protobuf::MessageLite"*)* @"\01?CheckTypeAndMergeFrom@Bar@simpleproto2@@UEAAXAEBVMessageLite@protobuf@google@@@Z" to i8*), i8* bitcast (i1 (%"class.simpleproto2::Bar.23"*, %"class.google::protobuf::io::CodedInputStream"*)* @"\01?MergePartialFromCodedStream@Bar@simpleproto2@@UEAA_NPEAVCodedInputStream@io@protobuf@google@@@Z" to i8*), i8* bitcast (i64 (%"class.simpleproto2::Bar.23"*)* @"\01?ByteSizeLong@Bar@simpleproto2@@UEBA_KXZ" to i8*), i8* bitcast (void (%"class.simpleproto2::Bar.23"*, %"class.google::protobuf::io::CodedOutputStream"*)* @"\01?SerializeWithCachedSizes@Bar@simpleproto2@@UEBAXPEAVCodedOutputStream@io@protobuf@google@@@Z" to i8*), i8* bitcast (i8* (%"class.google::protobuf::MessageLite"*, i8*)* @"\01?SerializeWithCachedSizesToArray@MessageLite@protobuf@google@@UEBAPEAEPEAE@Z" to i8*), i8* bitcast (i32 (%"class.simpleproto2::Bar.23"*)* @"\01?GetCachedSize@Bar@simpleproto2@@UEBAHXZ" to i8*), i8* bitcast (i8* (%"class.google::protobuf::MessageLite"*, i1, i8*)* @"\01?InternalSerializeWithCachedSizesToArray@MessageLite@protobuf@google@@UEBAPEAE_NPEAE@Z" to i8*), i8* bitcast (i8* (%"class.google::protobuf::MessageLite"*)* @"\01?InternalGetTable@MessageLite@protobuf@google@@EEBAPEBXXZ" to i8*)] }, comdat($"\01??_7Bar@simpleproto2@@6B@")
@"\01??_R4Bar@simpleproto2@@6B@" = linkonce_odr constant %rtti.CompleteObjectLocator { i32 1, i32 0, i32 0, i32 trunc (i64 sub nuw nsw (i64 ptrtoint (%rtti.TypeDescriptor22* @"\01??_R0?AVBar@simpleproto2@@@8" to i64), i64 ptrtoint (i8* @__ImageBase to i64)) to i32), i32 trunc (i64 sub nuw nsw (i64 ptrtoint (%rtti.ClassHierarchyDescriptor* @"\01??_R3Bar@simpleproto2@@8" to i64), i64 ptrtoint (i8* @__ImageBase to i64)) to i32), i32 trunc (i64 sub nuw nsw (i64 ptrtoint (%rtti.CompleteObjectLocator* @"\01??_R4Bar@simpleproto2@@6B@" to i64), i64 ptrtoint (i8* @__ImageBase to i64)) to i32) }, comdat
@"\01??_R0?AVBar@simpleproto2@@@8" = linkonce_odr global %rtti.TypeDescriptor22 { i8** @"\01??_7type_info@@6B@", i8* null, [23 x i8] c".?AVBar@simpleproto2@@\00" }, comdat
@"\01??_C@_0BB@BNABBDKI@simpleproto2?4Bar?$AA@" = linkonce_odr unnamed_addr constant [17 x i8] c"simpleproto2.Bar\00", comdat, align 1
@"\01??_R3Bar@simpleproto2@@8" = linkonce_odr constant %rtti.ClassHierarchyDescriptor { i32 0, i32 0, i32 2, i32 trunc (i64 sub nuw nsw (i64 ptrtoint ([3 x i32]* @"\01??_R2Bar@simpleproto2@@8" to i64), i64 ptrtoint (i8* @__ImageBase to i64)) to i32) }, comdat
@"\01??_R2Bar@simpleproto2@@8" = linkonce_odr constant [3 x i32] [i32 trunc (i64 sub nuw nsw (i64 ptrtoint (%rtti.BaseClassDescriptor* @"\01??_R1A@?0A@EA@Bar@simpleproto2@@8" to i64), i64 ptrtoint (i8* @__ImageBase to i64)) to i32), i32 trunc (i64 sub nuw nsw (i64 ptrtoint (%rtti.BaseClassDescriptor* @"\01??_R1A@?0A@EA@MessageLite@protobuf@google@@8" to i64), i64 ptrtoint (i8* @__ImageBase to i64)) to i32), i32 0], comdat
@"\01??_R1A@?0A@EA@Bar@simpleproto2@@8" = linkonce_odr constant %rtti.BaseClassDescriptor { i32 trunc (i64 sub nuw nsw (i64 ptrtoint (%rtti.TypeDescriptor22* @"\01??_R0?AVBar@simpleproto2@@@8" to i64), i64 ptrtoint (i8* @__ImageBase to i64)) to i32), i32 1, i32 0, i32 -1, i32 0, i32 64, i32 trunc (i64 sub nuw nsw (i64 ptrtoint (%rtti.ClassHierarchyDescriptor* @"\01??_R3Bar@simpleproto2@@8" to i64), i64 ptrtoint (i8* @__ImageBase to i64)) to i32) }, comdat

@"\01??_7Foo@simpleproto2@@6B@" = unnamed_addr alias i8*, getelementptr inbounds ({ [18 x i8*] }, { [18 x i8*] }* @2, i32 0, i32 0, i32 1)
@"\01??_7FunctionClosure0@internal@protobuf@google@@6B@" = unnamed_addr alias i8*, getelementptr inbounds ({ [3 x i8*] }, { [3 x i8*] }* @0, i32 0, i32 0, i32 1)
@"\01??_7Closure@protobuf@google@@6B@" = unnamed_addr alias i8*, getelementptr inbounds ({ [3 x i8*] }, { [3 x i8*] }* @1, i32 0, i32 0, i32 1)
@"\01??_7MessageLite@protobuf@google@@6B@" = unnamed_addr alias i8*, getelementptr inbounds ({ [18 x i8*] }, { [18 x i8*] }* @3, i32 0, i32 0, i32 1)
@"\01??_7Bar@simpleproto2@@6B@" = unnamed_addr alias i8*, getelementptr inbounds ({ [18 x i8*] }, { [18 x i8*] }* @4, i32 0, i32 0, i32 1)

; Function Attrs: noinline optnone uwtable
define void @"\01?TestBarAdd01@@YA?AVBar@simpleproto2@@AEBV12@0@Z"(%"class.simpleproto2::Bar"* noalias sret, %"class.simpleproto2::Bar"* dereferenceable(40), %"class.simpleproto2::Bar"* dereferenceable(40)) #0 personality i8* bitcast (i32 (...)* @__CxxFrameHandler3 to i8*) {
  %4 = alloca %"class.simpleproto2::Bar"*, align 8
  %5 = alloca %"class.simpleproto2::Bar"*, align 8
  %6 = alloca %"class.emp::Integer", align 8
  %7 = alloca i32, align 4
  %8 = alloca %"class.emp::Integer", align 8
  %9 = alloca i32, align 4
  %10 = alloca i32, align 4
  %11 = alloca %"class.emp::Integer", align 8
  %12 = alloca %"class.emp::Integer", align 8
  %13 = alloca i32, align 4
  %14 = alloca %"class.emp::Integer", align 8
  %15 = alloca i32, align 4
  %16 = alloca i32, align 4
  %17 = alloca %"class.emp::Integer", align 8
  %18 = alloca %"class.simpleproto2::Foo"*, align 8
  %19 = alloca %"class.std::basic_string", align 8
  %20 = alloca %"class.std::basic_string", align 8
  %21 = alloca %"class.std::basic_string", align 8
  %22 = alloca %"class.std::basic_string", align 8
  %23 = alloca %"class.std::basic_string", align 8
  %24 = alloca %"class.std::basic_string", align 8
  %25 = alloca %"class.std::basic_string", align 8
  %26 = alloca %"class.std::basic_string", align 8
  %27 = alloca i1, align 1
  store %"class.simpleproto2::Bar"* %2, %"class.simpleproto2::Bar"** %4, align 8
  store %"class.simpleproto2::Bar"* %1, %"class.simpleproto2::Bar"** %5, align 8
  %28 = load %"class.simpleproto2::Bar"*, %"class.simpleproto2::Bar"** %4, align 8
  %29 = call i32 @"\01?i32@Bar@simpleproto2@@QEBAHXZ"(%"class.simpleproto2::Bar"* %28)
  %30 = load %"class.simpleproto2::Bar"*, %"class.simpleproto2::Bar"** %5, align 8
  %31 = call i32 @"\01?i32@Bar@simpleproto2@@QEBAHXZ"(%"class.simpleproto2::Bar"* %30)
  %32 = call i32 (i8*, ...) @printf(i8* getelementptr inbounds ([26 x i8], [26 x i8]* @"\01??_C@_0BK@LFKNAHKK@?$CFs?5Bar?5Alice?3?5?$CFd?5Bob?3?5?$CFd?6?$AA@", i32 0, i32 0), i8* getelementptr inbounds ([13 x i8], [13 x i8]* @"\01??_C@_0N@HIDNCOAG@TestBarAdd01?$AA@", i32 0, i32 0), i32 %31, i32 %29)
  %33 = load %"class.simpleproto2::Bar"*, %"class.simpleproto2::Bar"** %4, align 8
  %34 = call dereferenceable(40) %"class.simpleproto2::Foo"* @"\01?foo@Bar@simpleproto2@@QEBAAEBVFoo@2@XZ"(%"class.simpleproto2::Bar"* %33)
  %35 = call i32 @"\01?i32@Foo@simpleproto2@@QEBAHXZ"(%"class.simpleproto2::Foo"* %34)
  %36 = load %"class.simpleproto2::Bar"*, %"class.simpleproto2::Bar"** %5, align 8
  %37 = call dereferenceable(40) %"class.simpleproto2::Foo"* @"\01?foo@Bar@simpleproto2@@QEBAAEBVFoo@2@XZ"(%"class.simpleproto2::Bar"* %36)
  %38 = call i32 @"\01?i32@Foo@simpleproto2@@QEBAHXZ"(%"class.simpleproto2::Foo"* %37)
  %39 = call i32 (i8*, ...) @printf(i8* getelementptr inbounds ([30 x i8], [30 x i8]* @"\01??_C@_0BO@PNMFCEHC@?$CFs?5Bar?4Foo?5Alice?3?5?$CFd?5Bob?3?5?$CFd?6?$AA@", i32 0, i32 0), i8* getelementptr inbounds ([13 x i8], [13 x i8]* @"\01??_C@_0N@HIDNCOAG@TestBarAdd01?$AA@", i32 0, i32 0), i32 %38, i32 %35)
  %40 = load %"class.simpleproto2::Bar"*, %"class.simpleproto2::Bar"** %5, align 8
  %41 = call i32 @"\01?i32@Bar@simpleproto2@@QEBAHXZ"(%"class.simpleproto2::Bar"* %40)
  store i32 %41, i32* %7, align 4
  %42 = call %"class.emp::Integer"* @"\01??0Integer@emp@@QEAA@AEBHH@Z"(%"class.emp::Integer"* %6, i32* dereferenceable(4) %7, i32 1)
  %43 = load %"class.simpleproto2::Bar"*, %"class.simpleproto2::Bar"** %4, align 8
  %44 = invoke i32 @"\01?i32@Bar@simpleproto2@@QEBAHXZ"(%"class.simpleproto2::Bar"* %43)
          to label %45 unwind label %142

; <label>:45:                                     ; preds = %3
  store i32 %44, i32* %9, align 4
  %46 = invoke %"class.emp::Integer"* @"\01??0Integer@emp@@QEAA@AEBHH@Z"(%"class.emp::Integer"* %8, i32* dereferenceable(4) %9, i32 2)
          to label %47 unwind label %142

; <label>:47:                                     ; preds = %45
  invoke void @"\01??HInteger@emp@@QEBA?AV01@AEBV01@@Z"(%"class.emp::Integer"* %6, %"class.emp::Integer"* sret %11, %"class.emp::Integer"* dereferenceable(16) %8)
          to label %48 unwind label %140

; <label>:48:                                     ; preds = %47
  %49 = invoke i64 @"\01?reveal_int@Integer@emp@@QEBA_JH@Z"(%"class.emp::Integer"* %11, i32 0)
          to label %50 unwind label %110

; <label>:50:                                     ; preds = %48
  %51 = trunc i64 %49 to i32
  call void @"\01??1Integer@emp@@QEAA@XZ"(%"class.emp::Integer"* %11) #9
  store i32 %51, i32* %10, align 4
  %52 = load i32, i32* %10, align 4
  %53 = invoke i32 (i8*, ...) @printf(i8* getelementptr inbounds ([27 x i8], [27 x i8]* @"\01??_C@_0BL@PIAAFKJK@?$CFs?5result?$CI?$DNAlice?$CLBob?$CJ?3?5?$CFd?6?$AA@", i32 0, i32 0), i8* getelementptr inbounds ([13 x i8], [13 x i8]* @"\01??_C@_0N@HIDNCOAG@TestBarAdd01?$AA@", i32 0, i32 0), i32 %52)
          to label %54 unwind label %140

; <label>:54:                                     ; preds = %50
  %55 = load %"class.simpleproto2::Bar"*, %"class.simpleproto2::Bar"** %5, align 8
  %56 = invoke dereferenceable(40) %"class.simpleproto2::Foo"* @"\01?foo@Bar@simpleproto2@@QEBAAEBVFoo@2@XZ"(%"class.simpleproto2::Bar"* %55)
          to label %57 unwind label %140

; <label>:57:                                     ; preds = %54
  %58 = invoke i32 @"\01?i32@Foo@simpleproto2@@QEBAHXZ"(%"class.simpleproto2::Foo"* %56)
          to label %59 unwind label %140

; <label>:59:                                     ; preds = %57
  store i32 %58, i32* %13, align 4
  %60 = invoke %"class.emp::Integer"* @"\01??0Integer@emp@@QEAA@AEBHH@Z"(%"class.emp::Integer"* %12, i32* dereferenceable(4) %13, i32 1)
          to label %61 unwind label %140

; <label>:61:                                     ; preds = %59
  %62 = load %"class.simpleproto2::Bar"*, %"class.simpleproto2::Bar"** %4, align 8
  %63 = invoke dereferenceable(40) %"class.simpleproto2::Foo"* @"\01?foo@Bar@simpleproto2@@QEBAAEBVFoo@2@XZ"(%"class.simpleproto2::Bar"* %62)
          to label %64 unwind label %138

; <label>:64:                                     ; preds = %61
  %65 = invoke i32 @"\01?i32@Foo@simpleproto2@@QEBAHXZ"(%"class.simpleproto2::Foo"* %63)
          to label %66 unwind label %138

; <label>:66:                                     ; preds = %64
  store i32 %65, i32* %15, align 4
  %67 = invoke %"class.emp::Integer"* @"\01??0Integer@emp@@QEAA@AEBHH@Z"(%"class.emp::Integer"* %14, i32* dereferenceable(4) %15, i32 2)
          to label %68 unwind label %138

; <label>:68:                                     ; preds = %66
  invoke void @"\01??HInteger@emp@@QEBA?AV01@AEBV01@@Z"(%"class.emp::Integer"* %12, %"class.emp::Integer"* sret %17, %"class.emp::Integer"* dereferenceable(16) %14)
          to label %69 unwind label %136

; <label>:69:                                     ; preds = %68
  %70 = invoke i64 @"\01?reveal_int@Integer@emp@@QEBA_JH@Z"(%"class.emp::Integer"* %17, i32 0)
          to label %71 unwind label %112

; <label>:71:                                     ; preds = %69
  %72 = trunc i64 %70 to i32
  call void @"\01??1Integer@emp@@QEAA@XZ"(%"class.emp::Integer"* %17) #9
  store i32 %72, i32* %16, align 4
  %73 = load i32, i32* %10, align 4
  %74 = invoke i32 (i8*, ...) @printf(i8* getelementptr inbounds ([35 x i8], [35 x i8]* @"\01??_C@_0CD@JNLOMIBB@?$CFs?5Bar?4Foo?5result?$CI?$DNAlice?$CLBob?$CJ?3?5?$CF@", i32 0, i32 0), i8* getelementptr inbounds ([13 x i8], [13 x i8]* @"\01??_C@_0N@HIDNCOAG@TestBarAdd01?$AA@", i32 0, i32 0), i32 %73)
          to label %75 unwind label %136

; <label>:75:                                     ; preds = %71
  %76 = invoke i8* @"\01??2@YAPEAX_K@Z"(i64 40) #11
          to label %77 unwind label %136

; <label>:77:                                     ; preds = %75
  %78 = bitcast i8* %76 to %"class.simpleproto2::Foo"*
  %79 = invoke %"class.simpleproto2::Foo"* bitcast (%"class.simpleproto2::Foo.11"* (%"class.simpleproto2::Foo.11"*)* @"\01??0Foo@simpleproto2@@QEAA@XZ" to %"class.simpleproto2::Foo"* (%"class.simpleproto2::Foo"*)*)(%"class.simpleproto2::Foo"* %78)
          to label %80 unwind label %114

; <label>:80:                                     ; preds = %77
  store %"class.simpleproto2::Foo"* %78, %"class.simpleproto2::Foo"** %18, align 8
  %81 = load %"class.simpleproto2::Foo"*, %"class.simpleproto2::Foo"** %18, align 8
  %82 = load i32, i32* %16, align 4
  invoke void @"\01?set_i32@Foo@simpleproto2@@QEAAXH@Z"(%"class.simpleproto2::Foo"* %81, i32 %82)
          to label %83 unwind label %136

; <label>:83:                                     ; preds = %80
  %84 = load %"class.simpleproto2::Foo"*, %"class.simpleproto2::Foo"** %18, align 8
  invoke void @"\01?set_f@Foo@simpleproto2@@QEAAXM@Z"(%"class.simpleproto2::Foo"* %84, float 2.220000e+02)
          to label %85 unwind label %136

; <label>:85:                                     ; preds = %83
  %86 = load %"class.simpleproto2::Foo"*, %"class.simpleproto2::Foo"** %18, align 8
  %87 = load i32, i32* %16, align 4
  invoke void @"\01?to_string@std@@YA?AV?$basic_string@DU?$char_traits@D@std@@V?$allocator@D@2@@1@H@Z"(%"class.std::basic_string"* sret %20, i32 %87)
          to label %88 unwind label %136

; <label>:88:                                     ; preds = %85
  %89 = load %"class.simpleproto2::Bar"*, %"class.simpleproto2::Bar"** %4, align 8
  %90 = invoke i32 @"\01?i32@Bar@simpleproto2@@QEBAHXZ"(%"class.simpleproto2::Bar"* %89)
          to label %91 unwind label %130

; <label>:91:                                     ; preds = %88
  invoke void @"\01?to_string@std@@YA?AV?$basic_string@DU?$char_traits@D@std@@V?$allocator@D@2@@1@H@Z"(%"class.std::basic_string"* sret %23, i32 %90)
          to label %92 unwind label %130

; <label>:92:                                     ; preds = %91
  %93 = load %"class.simpleproto2::Bar"*, %"class.simpleproto2::Bar"** %5, align 8
  %94 = invoke i32 @"\01?i32@Bar@simpleproto2@@QEBAHXZ"(%"class.simpleproto2::Bar"* %93)
          to label %95 unwind label %128

; <label>:95:                                     ; preds = %92
  invoke void @"\01?to_string@std@@YA?AV?$basic_string@DU?$char_traits@D@std@@V?$allocator@D@2@@1@H@Z"(%"class.std::basic_string"* sret %26, i32 %94)
          to label %96 unwind label %128

; <label>:96:                                     ; preds = %95
  invoke void @"\01??$?HDU?$char_traits@D@std@@V?$allocator@D@1@@std@@YA?AV?$basic_string@DU?$char_traits@D@std@@V?$allocator@D@2@@0@QEBD$$QEAV10@@Z"(%"class.std::basic_string"* sret %25, i8* getelementptr inbounds ([21 x i8], [21 x i8]* @"\01??_C@_0BF@MJKDIDP@this?5is?5foo?5result?3?5?$AA@", i32 0, i32 0), %"class.std::basic_string"* dereferenceable(32) %26)
          to label %97 unwind label %126

; <label>:97:                                     ; preds = %96
  invoke void @"\01??$?HDU?$char_traits@D@std@@V?$allocator@D@1@@std@@YA?AV?$basic_string@DU?$char_traits@D@std@@V?$allocator@D@2@@0@$$QEAV10@QEBD@Z"(%"class.std::basic_string"* sret %24, %"class.std::basic_string"* dereferenceable(32) %25, i8* getelementptr inbounds ([2 x i8], [2 x i8]* @"\01??_C@_01MIFGBAGJ@?$CL?$AA@", i32 0, i32 0))
          to label %98 unwind label %124

; <label>:98:                                     ; preds = %97
  invoke void @"\01??$?HDU?$char_traits@D@std@@V?$allocator@D@1@@std@@YA?AV?$basic_string@DU?$char_traits@D@std@@V?$allocator@D@2@@0@$$QEAV10@0@Z"(%"class.std::basic_string"* sret %22, %"class.std::basic_string"* dereferenceable(32) %24, %"class.std::basic_string"* dereferenceable(32) %23)
          to label %99 unwind label %122

; <label>:99:                                     ; preds = %98
  invoke void @"\01??$?HDU?$char_traits@D@std@@V?$allocator@D@1@@std@@YA?AV?$basic_string@DU?$char_traits@D@std@@V?$allocator@D@2@@0@$$QEAV10@QEBD@Z"(%"class.std::basic_string"* sret %21, %"class.std::basic_string"* dereferenceable(32) %22, i8* getelementptr inbounds ([2 x i8], [2 x i8]* @"\01??_C@_01NEMOKFLO@?$DN?$AA@", i32 0, i32 0))
          to label %100 unwind label %120

; <label>:100:                                    ; preds = %99
  invoke void @"\01??$?HDU?$char_traits@D@std@@V?$allocator@D@1@@std@@YA?AV?$basic_string@DU?$char_traits@D@std@@V?$allocator@D@2@@0@$$QEAV10@0@Z"(%"class.std::basic_string"* sret %19, %"class.std::basic_string"* dereferenceable(32) %21, %"class.std::basic_string"* dereferenceable(32) %20)
          to label %101 unwind label %118

; <label>:101:                                    ; preds = %100
  invoke void @"\01?set_s@Foo@simpleproto2@@QEAAX$$QEAV?$basic_string@DU?$char_traits@D@std@@V?$allocator@D@2@@std@@@Z"(%"class.simpleproto2::Foo"* %86, %"class.std::basic_string"* dereferenceable(32) %19)
          to label %102 unwind label %116

; <label>:102:                                    ; preds = %101
  call void @"\01??1?$basic_string@DU?$char_traits@D@std@@V?$allocator@D@2@@std@@QEAA@XZ"(%"class.std::basic_string"* %19) #9
  call void @"\01??1?$basic_string@DU?$char_traits@D@std@@V?$allocator@D@2@@std@@QEAA@XZ"(%"class.std::basic_string"* %21) #9
  call void @"\01??1?$basic_string@DU?$char_traits@D@std@@V?$allocator@D@2@@std@@QEAA@XZ"(%"class.std::basic_string"* %22) #9
  call void @"\01??1?$basic_string@DU?$char_traits@D@std@@V?$allocator@D@2@@std@@QEAA@XZ"(%"class.std::basic_string"* %24) #9
  call void @"\01??1?$basic_string@DU?$char_traits@D@std@@V?$allocator@D@2@@std@@QEAA@XZ"(%"class.std::basic_string"* %25) #9
  call void @"\01??1?$basic_string@DU?$char_traits@D@std@@V?$allocator@D@2@@std@@QEAA@XZ"(%"class.std::basic_string"* %26) #9
  call void @"\01??1?$basic_string@DU?$char_traits@D@std@@V?$allocator@D@2@@std@@QEAA@XZ"(%"class.std::basic_string"* %23) #9
  call void @"\01??1?$basic_string@DU?$char_traits@D@std@@V?$allocator@D@2@@std@@QEAA@XZ"(%"class.std::basic_string"* %20) #9
  store i1 false, i1* %27, align 1
  %103 = invoke %"class.simpleproto2::Bar"* bitcast (%"class.simpleproto2::Bar.23"* (%"class.simpleproto2::Bar.23"*)* @"\01??0Bar@simpleproto2@@QEAA@XZ" to %"class.simpleproto2::Bar"* (%"class.simpleproto2::Bar"*)*)(%"class.simpleproto2::Bar"* %0)
          to label %104 unwind label %136

; <label>:104:                                    ; preds = %102
  %105 = load %"class.simpleproto2::Foo"*, %"class.simpleproto2::Foo"** %18, align 8
  invoke void @"\01?set_allocated_foo@Bar@simpleproto2@@QEAAXPEAVFoo@2@@Z"(%"class.simpleproto2::Bar"* %0, %"class.simpleproto2::Foo"* %105)
          to label %106 unwind label %134

; <label>:106:                                    ; preds = %104
  %107 = load i32, i32* %10, align 4
  invoke void @"\01?set_i32@Bar@simpleproto2@@QEAAXH@Z"(%"class.simpleproto2::Bar"* %0, i32 %107)
          to label %108 unwind label %134

; <label>:108:                                    ; preds = %106
  store i1 true, i1* %27, align 1
  %109 = load i1, i1* %27, align 1
  br i1 %109, label %133, label %132

; <label>:110:                                    ; preds = %48
  %111 = cleanuppad within none []
  call void @"\01??1Integer@emp@@QEAA@XZ"(%"class.emp::Integer"* %11) #9 [ "funclet"(token %111) ]
  cleanupret from %111 unwind label %140

; <label>:112:                                    ; preds = %69
  %113 = cleanuppad within none []
  call void @"\01??1Integer@emp@@QEAA@XZ"(%"class.emp::Integer"* %17) #9 [ "funclet"(token %113) ]
  cleanupret from %113 unwind label %136

; <label>:114:                                    ; preds = %77
  %115 = cleanuppad within none []
  call void @"\01??3@YAXPEAX@Z"(i8* %76) #12 [ "funclet"(token %115) ]
  cleanupret from %115 unwind label %136

; <label>:116:                                    ; preds = %101
  %117 = cleanuppad within none []
  call void @"\01??1?$basic_string@DU?$char_traits@D@std@@V?$allocator@D@2@@std@@QEAA@XZ"(%"class.std::basic_string"* %19) #9 [ "funclet"(token %117) ]
  cleanupret from %117 unwind label %118

; <label>:118:                                    ; preds = %116, %100
  %119 = cleanuppad within none []
  call void @"\01??1?$basic_string@DU?$char_traits@D@std@@V?$allocator@D@2@@std@@QEAA@XZ"(%"class.std::basic_string"* %21) #9 [ "funclet"(token %119) ]
  cleanupret from %119 unwind label %120

; <label>:120:                                    ; preds = %118, %99
  %121 = cleanuppad within none []
  call void @"\01??1?$basic_string@DU?$char_traits@D@std@@V?$allocator@D@2@@std@@QEAA@XZ"(%"class.std::basic_string"* %22) #9 [ "funclet"(token %121) ]
  cleanupret from %121 unwind label %122

; <label>:122:                                    ; preds = %120, %98
  %123 = cleanuppad within none []
  call void @"\01??1?$basic_string@DU?$char_traits@D@std@@V?$allocator@D@2@@std@@QEAA@XZ"(%"class.std::basic_string"* %24) #9 [ "funclet"(token %123) ]
  cleanupret from %123 unwind label %124

; <label>:124:                                    ; preds = %122, %97
  %125 = cleanuppad within none []
  call void @"\01??1?$basic_string@DU?$char_traits@D@std@@V?$allocator@D@2@@std@@QEAA@XZ"(%"class.std::basic_string"* %25) #9 [ "funclet"(token %125) ]
  cleanupret from %125 unwind label %126

; <label>:126:                                    ; preds = %124, %96
  %127 = cleanuppad within none []
  call void @"\01??1?$basic_string@DU?$char_traits@D@std@@V?$allocator@D@2@@std@@QEAA@XZ"(%"class.std::basic_string"* %26) #9 [ "funclet"(token %127) ]
  cleanupret from %127 unwind label %128

; <label>:128:                                    ; preds = %126, %95, %92
  %129 = cleanuppad within none []
  call void @"\01??1?$basic_string@DU?$char_traits@D@std@@V?$allocator@D@2@@std@@QEAA@XZ"(%"class.std::basic_string"* %23) #9 [ "funclet"(token %129) ]
  cleanupret from %129 unwind label %130

; <label>:130:                                    ; preds = %128, %91, %88
  %131 = cleanuppad within none []
  call void @"\01??1?$basic_string@DU?$char_traits@D@std@@V?$allocator@D@2@@std@@QEAA@XZ"(%"class.std::basic_string"* %20) #9 [ "funclet"(token %131) ]
  cleanupret from %131 unwind label %136

; <label>:132:                                    ; preds = %108
  call void bitcast (void (%"class.simpleproto2::Bar.23"*)* @"\01??1Bar@simpleproto2@@UEAA@XZ" to void (%"class.simpleproto2::Bar"*)*)(%"class.simpleproto2::Bar"* %0) #9
  br label %133

; <label>:133:                                    ; preds = %132, %108
  call void @"\01??1Integer@emp@@QEAA@XZ"(%"class.emp::Integer"* %14) #9
  call void @"\01??1Integer@emp@@QEAA@XZ"(%"class.emp::Integer"* %12) #9
  call void @"\01??1Integer@emp@@QEAA@XZ"(%"class.emp::Integer"* %8) #9
  call void @"\01??1Integer@emp@@QEAA@XZ"(%"class.emp::Integer"* %6) #9
  ret void

; <label>:134:                                    ; preds = %106, %104
  %135 = cleanuppad within none []
  call void bitcast (void (%"class.simpleproto2::Bar.23"*)* @"\01??1Bar@simpleproto2@@UEAA@XZ" to void (%"class.simpleproto2::Bar"*)*)(%"class.simpleproto2::Bar"* %0) #9 [ "funclet"(token %135) ]
  cleanupret from %135 unwind label %136

; <label>:136:                                    ; preds = %134, %102, %130, %85, %83, %80, %114, %75, %71, %112, %68
  %137 = cleanuppad within none []
  call void @"\01??1Integer@emp@@QEAA@XZ"(%"class.emp::Integer"* %14) #9 [ "funclet"(token %137) ]
  cleanupret from %137 unwind label %138

; <label>:138:                                    ; preds = %136, %66, %64, %61
  %139 = cleanuppad within none []
  call void @"\01??1Integer@emp@@QEAA@XZ"(%"class.emp::Integer"* %12) #9 [ "funclet"(token %139) ]
  cleanupret from %139 unwind label %140

; <label>:140:                                    ; preds = %138, %59, %57, %54, %50, %110, %47
  %141 = cleanuppad within none []
  call void @"\01??1Integer@emp@@QEAA@XZ"(%"class.emp::Integer"* %8) #9 [ "funclet"(token %141) ]
  cleanupret from %141 unwind label %142

; <label>:142:                                    ; preds = %140, %45, %3
  %143 = cleanuppad within none []
  call void @"\01??1Integer@emp@@QEAA@XZ"(%"class.emp::Integer"* %6) #9 [ "funclet"(token %143) ]
  cleanupret from %143 unwind to caller
}

declare i32 @__CxxFrameHandler3(...)

; Function Attrs: noinline nounwind optnone uwtable
define linkonce_odr i32 @"\01?i32@Bar@simpleproto2@@QEBAHXZ"(%"class.simpleproto2::Bar"*) #1 comdat align 2 {
  %2 = alloca %"class.simpleproto2::Bar"*, align 8
  store %"class.simpleproto2::Bar"* %0, %"class.simpleproto2::Bar"** %2, align 8
  %3 = load %"class.simpleproto2::Bar"*, %"class.simpleproto2::Bar"** %2, align 8
  %4 = getelementptr inbounds %"class.simpleproto2::Bar", %"class.simpleproto2::Bar"* %3, i32 0, i32 3
  %5 = load i32, i32* %4, align 8
  ret i32 %5
}

; Function Attrs: noinline optnone uwtable
define linkonce_odr i32 @printf(i8*, ...) #0 comdat {
  %2 = alloca i8*, align 8
  %3 = alloca i32, align 4
  %4 = alloca i8*, align 8
  %5 = alloca %"class.std::allocator", align 1
  store i8* %0, i8** %2, align 8
  %6 = bitcast i8** %4 to i8*
  call void @llvm.va_start(i8* %6)
  %7 = load i8*, i8** %4, align 8
  %8 = load i8*, i8** %2, align 8
  %9 = call %"class.google::protobuf::internal::InternalMetadataWithArenaBase"* @__acrt_iob_func(i32 1)
  %10 = call i32 @_vfprintf_l(%"class.google::protobuf::internal::InternalMetadataWithArenaBase"* %9, i8* %8, %struct.__crt_locale_pointers* null, i8* %7)
  store i32 %10, i32* %3, align 4
  store i8* null, i8** %4, align 8
  %11 = load i32, i32* %3, align 4
  ret i32 %11
}

; Function Attrs: noinline nounwind optnone uwtable
define linkonce_odr dereferenceable(40) %"class.simpleproto2::Foo"* @"\01?foo@Bar@simpleproto2@@QEBAAEBVFoo@2@XZ"(%"class.simpleproto2::Bar"*) #1 comdat align 2 {
  %2 = alloca %"class.simpleproto2::Bar"*, align 8
  %3 = alloca %"class.simpleproto2::Foo"*, align 8
  store %"class.simpleproto2::Bar"* %0, %"class.simpleproto2::Bar"** %2, align 8
  %4 = load %"class.simpleproto2::Bar"*, %"class.simpleproto2::Bar"** %2, align 8
  %5 = getelementptr inbounds %"class.simpleproto2::Bar", %"class.simpleproto2::Bar"* %4, i32 0, i32 2
  %6 = load %"class.simpleproto2::Foo"*, %"class.simpleproto2::Foo"** %5, align 8
  store %"class.simpleproto2::Foo"* %6, %"class.simpleproto2::Foo"** %3, align 8
  %7 = load %"class.simpleproto2::Foo"*, %"class.simpleproto2::Foo"** %3, align 8
  %8 = icmp ne %"class.simpleproto2::Foo"* %7, null
  br i1 %8, label %9, label %11

; <label>:9:                                      ; preds = %1
  %10 = load %"class.simpleproto2::Foo"*, %"class.simpleproto2::Foo"** %3, align 8
  br label %12

; <label>:11:                                     ; preds = %1
  br label %12

; <label>:12:                                     ; preds = %11, %9
  %13 = phi %"class.simpleproto2::Foo"* [ %10, %9 ], [ bitcast (%"class.simpleproto2::FooDefaultTypeInternal"* @"\01?_Foo_default_instance_@simpleproto2@@3VFooDefaultTypeInternal@1@A" to %"class.simpleproto2::Foo"*), %11 ]
  ret %"class.simpleproto2::Foo"* %13
}

; Function Attrs: noinline nounwind optnone uwtable
define linkonce_odr i32 @"\01?i32@Foo@simpleproto2@@QEBAHXZ"(%"class.simpleproto2::Foo"*) #1 comdat align 2 {
  %2 = alloca %"class.simpleproto2::Foo"*, align 8
  store %"class.simpleproto2::Foo"* %0, %"class.simpleproto2::Foo"** %2, align 8
  %3 = load %"class.simpleproto2::Foo"*, %"class.simpleproto2::Foo"** %2, align 8
  %4 = getelementptr inbounds %"class.simpleproto2::Foo", %"class.simpleproto2::Foo"* %3, i32 0, i32 3
  %5 = load i32, i32* %4, align 8
  ret i32 %5
}

declare %"class.emp::Integer"* @"\01??0Integer@emp@@QEAA@AEBHH@Z"(%"class.emp::Integer"* returned, i32* dereferenceable(4), i32) unnamed_addr #2

declare void @"\01??HInteger@emp@@QEBA?AV01@AEBV01@@Z"(%"class.emp::Integer"*, %"class.emp::Integer"* sret, %"class.emp::Integer"* dereferenceable(16)) #2

declare i64 @"\01?reveal_int@Integer@emp@@QEBA_JH@Z"(%"class.emp::Integer"*, i32) #2

; Function Attrs: nounwind
declare void @"\01??1Integer@emp@@QEAA@XZ"(%"class.emp::Integer"*) unnamed_addr #3

; Function Attrs: nobuiltin
declare noalias i8* @"\01??2@YAPEAX_K@Z"(i64) #4

; Function Attrs: noinline nounwind optnone uwtable
define linkonce_odr void @"\01?set_i32@Foo@simpleproto2@@QEAAXH@Z"(%"class.simpleproto2::Foo"*, i32) #1 comdat align 2 {
  %3 = alloca i32, align 4
  %4 = alloca %"class.simpleproto2::Foo"*, align 8
  store i32 %1, i32* %3, align 4
  store %"class.simpleproto2::Foo"* %0, %"class.simpleproto2::Foo"** %4, align 8
  %5 = load %"class.simpleproto2::Foo"*, %"class.simpleproto2::Foo"** %4, align 8
  %6 = load i32, i32* %3, align 4
  %7 = getelementptr inbounds %"class.simpleproto2::Foo", %"class.simpleproto2::Foo"* %5, i32 0, i32 3
  store i32 %6, i32* %7, align 8
  ret void
}

; Function Attrs: noinline nounwind optnone uwtable
define linkonce_odr void @"\01?set_f@Foo@simpleproto2@@QEAAXM@Z"(%"class.simpleproto2::Foo"*, float) #1 comdat align 2 {
  %3 = alloca float, align 4
  %4 = alloca %"class.simpleproto2::Foo"*, align 8
  store float %1, float* %3, align 4
  store %"class.simpleproto2::Foo"* %0, %"class.simpleproto2::Foo"** %4, align 8
  %5 = load %"class.simpleproto2::Foo"*, %"class.simpleproto2::Foo"** %4, align 8
  %6 = load float, float* %3, align 4
  %7 = getelementptr inbounds %"class.simpleproto2::Foo", %"class.simpleproto2::Foo"* %5, i32 0, i32 4
  store float %6, float* %7, align 4
  ret void
}

; Function Attrs: noinline optnone uwtable
define linkonce_odr void @"\01?to_string@std@@YA?AV?$basic_string@DU?$char_traits@D@std@@V?$allocator@D@2@@1@H@Z"(%"class.std::basic_string"* noalias sret, i32) #0 comdat {
  %3 = alloca i32, align 4
  store i32 %1, i32* %3, align 4
  %4 = load i32, i32* %3, align 4
  call void @"\01??$_Integral_to_string@DH@std@@YA?AV?$basic_string@DU?$char_traits@D@std@@V?$allocator@D@2@@0@H@Z"(%"class.std::basic_string"* sret %0, i32 %4)
  ret void
}

; Function Attrs: noinline optnone uwtable
define linkonce_odr void @"\01??$?HDU?$char_traits@D@std@@V?$allocator@D@1@@std@@YA?AV?$basic_string@DU?$char_traits@D@std@@V?$allocator@D@2@@0@QEBD$$QEAV10@@Z"(%"class.std::basic_string"* noalias sret, i8*, %"class.std::basic_string"* dereferenceable(32)) #0 comdat {
  %4 = alloca %"class.std::basic_string"*, align 8
  %5 = alloca i8*, align 8
  store %"class.std::basic_string"* %2, %"class.std::basic_string"** %4, align 8
  store i8* %1, i8** %5, align 8
  %6 = load %"class.std::basic_string"*, %"class.std::basic_string"** %4, align 8
  %7 = load i8*, i8** %5, align 8
  %8 = call dereferenceable(32) %"class.std::basic_string"* @"\01?insert@?$basic_string@DU?$char_traits@D@std@@V?$allocator@D@2@@std@@QEAAAEAV12@_KQEBD@Z"(%"class.std::basic_string"* %6, i64 0, i8* %7)
  %9 = call dereferenceable(32) %"class.std::basic_string"* @"\01??$move@AEAV?$basic_string@DU?$char_traits@D@std@@V?$allocator@D@2@@std@@@std@@YA$$QEAV?$basic_string@DU?$char_traits@D@std@@V?$allocator@D@2@@0@AEAV10@@Z"(%"class.std::basic_string"* dereferenceable(32) %8) #9
  %10 = call %"class.std::basic_string"* @"\01??0?$basic_string@DU?$char_traits@D@std@@V?$allocator@D@2@@std@@QEAA@$$QEAV01@@Z"(%"class.std::basic_string"* %0, %"class.std::basic_string"* dereferenceable(32) %9) #9
  ret void
}

; Function Attrs: noinline optnone uwtable
define linkonce_odr void @"\01??$?HDU?$char_traits@D@std@@V?$allocator@D@1@@std@@YA?AV?$basic_string@DU?$char_traits@D@std@@V?$allocator@D@2@@0@$$QEAV10@QEBD@Z"(%"class.std::basic_string"* noalias sret, %"class.std::basic_string"* dereferenceable(32), i8*) #0 comdat {
  %4 = alloca i8*, align 8
  %5 = alloca %"class.std::basic_string"*, align 8
  store i8* %2, i8** %4, align 8
  store %"class.std::basic_string"* %1, %"class.std::basic_string"** %5, align 8
  %6 = load %"class.std::basic_string"*, %"class.std::basic_string"** %5, align 8
  %7 = load i8*, i8** %4, align 8
  %8 = call dereferenceable(32) %"class.std::basic_string"* @"\01?append@?$basic_string@DU?$char_traits@D@std@@V?$allocator@D@2@@std@@QEAAAEAV12@QEBD@Z"(%"class.std::basic_string"* %6, i8* %7)
  %9 = call dereferenceable(32) %"class.std::basic_string"* @"\01??$move@AEAV?$basic_string@DU?$char_traits@D@std@@V?$allocator@D@2@@std@@@std@@YA$$QEAV?$basic_string@DU?$char_traits@D@std@@V?$allocator@D@2@@0@AEAV10@@Z"(%"class.std::basic_string"* dereferenceable(32) %8) #9
  %10 = call %"class.std::basic_string"* @"\01??0?$basic_string@DU?$char_traits@D@std@@V?$allocator@D@2@@std@@QEAA@$$QEAV01@@Z"(%"class.std::basic_string"* %0, %"class.std::basic_string"* dereferenceable(32) %9) #9
  ret void
}

; Function Attrs: noinline optnone uwtable
define linkonce_odr void @"\01??$?HDU?$char_traits@D@std@@V?$allocator@D@1@@std@@YA?AV?$basic_string@DU?$char_traits@D@std@@V?$allocator@D@2@@0@$$QEAV10@0@Z"(%"class.std::basic_string"* noalias sret, %"class.std::basic_string"* dereferenceable(32), %"class.std::basic_string"* dereferenceable(32)) #0 comdat {
  %4 = alloca %"class.std::basic_string"*, align 8
  %5 = alloca %"class.std::basic_string"*, align 8
  store %"class.std::basic_string"* %2, %"class.std::basic_string"** %4, align 8
  store %"class.std::basic_string"* %1, %"class.std::basic_string"** %5, align 8
  %6 = load %"class.std::basic_string"*, %"class.std::basic_string"** %4, align 8
  %7 = call i64 @"\01?size@?$basic_string@DU?$char_traits@D@std@@V?$allocator@D@2@@std@@QEBA_KXZ"(%"class.std::basic_string"* %6) #9
  %8 = load %"class.std::basic_string"*, %"class.std::basic_string"** %5, align 8
  %9 = call i64 @"\01?capacity@?$basic_string@DU?$char_traits@D@std@@V?$allocator@D@2@@std@@QEBA_KXZ"(%"class.std::basic_string"* %8) #9
  %10 = load %"class.std::basic_string"*, %"class.std::basic_string"** %5, align 8
  %11 = call i64 @"\01?size@?$basic_string@DU?$char_traits@D@std@@V?$allocator@D@2@@std@@QEBA_KXZ"(%"class.std::basic_string"* %10) #9
  %12 = sub i64 %9, %11
  %13 = icmp ule i64 %7, %12
  br i1 %13, label %23, label %14

; <label>:14:                                     ; preds = %3
  %15 = load %"class.std::basic_string"*, %"class.std::basic_string"** %4, align 8
  %16 = call i64 @"\01?capacity@?$basic_string@DU?$char_traits@D@std@@V?$allocator@D@2@@std@@QEBA_KXZ"(%"class.std::basic_string"* %15) #9
  %17 = load %"class.std::basic_string"*, %"class.std::basic_string"** %4, align 8
  %18 = call i64 @"\01?size@?$basic_string@DU?$char_traits@D@std@@V?$allocator@D@2@@std@@QEBA_KXZ"(%"class.std::basic_string"* %17) #9
  %19 = sub i64 %16, %18
  %20 = load %"class.std::basic_string"*, %"class.std::basic_string"** %5, align 8
  %21 = call i64 @"\01?size@?$basic_string@DU?$char_traits@D@std@@V?$allocator@D@2@@std@@QEBA_KXZ"(%"class.std::basic_string"* %20) #9
  %22 = icmp ult i64 %19, %21
  br i1 %22, label %23, label %29

; <label>:23:                                     ; preds = %14, %3
  %24 = load %"class.std::basic_string"*, %"class.std::basic_string"** %5, align 8
  %25 = load %"class.std::basic_string"*, %"class.std::basic_string"** %4, align 8
  %26 = call dereferenceable(32) %"class.std::basic_string"* @"\01?append@?$basic_string@DU?$char_traits@D@std@@V?$allocator@D@2@@std@@QEAAAEAV12@AEBV12@@Z"(%"class.std::basic_string"* %24, %"class.std::basic_string"* dereferenceable(32) %25)
  %27 = call dereferenceable(32) %"class.std::basic_string"* @"\01??$move@AEAV?$basic_string@DU?$char_traits@D@std@@V?$allocator@D@2@@std@@@std@@YA$$QEAV?$basic_string@DU?$char_traits@D@std@@V?$allocator@D@2@@0@AEAV10@@Z"(%"class.std::basic_string"* dereferenceable(32) %26) #9
  %28 = call %"class.std::basic_string"* @"\01??0?$basic_string@DU?$char_traits@D@std@@V?$allocator@D@2@@std@@QEAA@$$QEAV01@@Z"(%"class.std::basic_string"* %0, %"class.std::basic_string"* dereferenceable(32) %27) #9
  br label %35

; <label>:29:                                     ; preds = %14
  %30 = load %"class.std::basic_string"*, %"class.std::basic_string"** %4, align 8
  %31 = load %"class.std::basic_string"*, %"class.std::basic_string"** %5, align 8
  %32 = call dereferenceable(32) %"class.std::basic_string"* @"\01?insert@?$basic_string@DU?$char_traits@D@std@@V?$allocator@D@2@@std@@QEAAAEAV12@_KAEBV12@@Z"(%"class.std::basic_string"* %30, i64 0, %"class.std::basic_string"* dereferenceable(32) %31)
  %33 = call dereferenceable(32) %"class.std::basic_string"* @"\01??$move@AEAV?$basic_string@DU?$char_traits@D@std@@V?$allocator@D@2@@std@@@std@@YA$$QEAV?$basic_string@DU?$char_traits@D@std@@V?$allocator@D@2@@0@AEAV10@@Z"(%"class.std::basic_string"* dereferenceable(32) %32) #9
  %34 = call %"class.std::basic_string"* @"\01??0?$basic_string@DU?$char_traits@D@std@@V?$allocator@D@2@@std@@QEAA@$$QEAV01@@Z"(%"class.std::basic_string"* %0, %"class.std::basic_string"* dereferenceable(32) %33) #9
  br label %35

; <label>:35:                                     ; preds = %29, %23
  ret void
}

; Function Attrs: noinline optnone uwtable
define linkonce_odr void @"\01?set_s@Foo@simpleproto2@@QEAAX$$QEAV?$basic_string@DU?$char_traits@D@std@@V?$allocator@D@2@@std@@@Z"(%"class.simpleproto2::Foo"*, %"class.std::basic_string"* dereferenceable(32)) #0 comdat align 2 {
  %3 = alloca %"class.std::basic_string"*, align 8
  %4 = alloca %"class.simpleproto2::Foo"*, align 8
  store %"class.std::basic_string"* %1, %"class.std::basic_string"** %3, align 8
  store %"class.simpleproto2::Foo"* %0, %"class.simpleproto2::Foo"** %4, align 8
  %5 = load %"class.simpleproto2::Foo"*, %"class.simpleproto2::Foo"** %4, align 8
  %6 = getelementptr inbounds %"class.simpleproto2::Foo", %"class.simpleproto2::Foo"* %5, i32 0, i32 2
  %7 = load %"class.std::basic_string"*, %"class.std::basic_string"** %3, align 8
  %8 = call dereferenceable(32) %"class.std::basic_string"* @"\01??$move@AEAV?$basic_string@DU?$char_traits@D@std@@V?$allocator@D@2@@std@@@std@@YA$$QEAV?$basic_string@DU?$char_traits@D@std@@V?$allocator@D@2@@0@AEAV10@@Z"(%"class.std::basic_string"* dereferenceable(32) %7) #9
  %9 = call dereferenceable(32) %"class.std::basic_string"* @"\01?GetEmptyStringAlreadyInited@internal@protobuf@google@@YAAEBV?$basic_string@DU?$char_traits@D@std@@V?$allocator@D@2@@std@@XZ"()
  call void @"\01?SetNoArena@ArenaStringPtr@internal@protobuf@google@@QEAAXPEBV?$basic_string@DU?$char_traits@D@std@@V?$allocator@D@2@@std@@$$QEAV56@@Z"(%"struct.google::protobuf::internal::ArenaStringPtr"* %6, %"class.std::basic_string"* %9, %"class.std::basic_string"* dereferenceable(32) %8)
  ret void
}

; Function Attrs: noinline nounwind optnone uwtable
define linkonce_odr void @"\01??1?$basic_string@DU?$char_traits@D@std@@V?$allocator@D@2@@std@@QEAA@XZ"(%"class.std::basic_string"*) unnamed_addr #1 comdat align 2 personality i8* bitcast (i32 (...)* @__CxxFrameHandler3 to i8*) {
  %2 = alloca %"class.std::basic_string"*, align 8
  store %"class.std::basic_string"* %0, %"class.std::basic_string"** %2, align 8
  %3 = load %"class.std::basic_string"*, %"class.std::basic_string"** %2, align 8
  invoke void @"\01?_Tidy_deallocate@?$basic_string@DU?$char_traits@D@std@@V?$allocator@D@2@@std@@QEAAXXZ"(%"class.std::basic_string"* %3)
          to label %4 unwind label %6

; <label>:4:                                      ; preds = %1
  %5 = bitcast %"class.std::basic_string"* %3 to %"class.std::_String_alloc"*
  call void @"\01??1?$_String_alloc@U?$_String_base_types@DV?$allocator@D@std@@@std@@@std@@QEAA@XZ"(%"class.std::_String_alloc"* %5) #9
  ret void

; <label>:6:                                      ; preds = %1
  %7 = cleanuppad within none []
  %8 = bitcast %"class.std::basic_string"* %3 to %"class.std::_String_alloc"*
  call void @"\01??1?$_String_alloc@U?$_String_base_types@DV?$allocator@D@std@@@std@@@std@@QEAA@XZ"(%"class.std::_String_alloc"* %8) #9 [ "funclet"(token %7) ]
  cleanupret from %7 unwind label %9

; <label>:9:                                      ; preds = %6
  %10 = cleanuppad within none []
  call void @__std_terminate() #10 [ "funclet"(token %10) ]
  unreachable
}

; Function Attrs: noinline optnone uwtable
define linkonce_odr void @"\01?set_allocated_foo@Bar@simpleproto2@@QEAAXPEAVFoo@2@@Z"(%"class.simpleproto2::Bar"*, %"class.simpleproto2::Foo"*) #0 comdat align 2 {
  %3 = alloca %"class.simpleproto2::Foo"*, align 8
  %4 = alloca %"class.simpleproto2::Bar"*, align 8
  %5 = alloca %"class.google::protobuf::Arena"*, align 8
  %6 = alloca %"class.google::protobuf::Arena"*, align 8
  store %"class.simpleproto2::Foo"* %1, %"class.simpleproto2::Foo"** %3, align 8
  store %"class.simpleproto2::Bar"* %0, %"class.simpleproto2::Bar"** %4, align 8
  %7 = load %"class.simpleproto2::Bar"*, %"class.simpleproto2::Bar"** %4, align 8
  %8 = call %"class.google::protobuf::Arena"* @"\01?GetArenaNoVirtual@Bar@simpleproto2@@AEBAPEAVArena@protobuf@google@@XZ"(%"class.simpleproto2::Bar"* %7)
  store %"class.google::protobuf::Arena"* %8, %"class.google::protobuf::Arena"** %5, align 8
  %9 = load %"class.google::protobuf::Arena"*, %"class.google::protobuf::Arena"** %5, align 8
  %10 = icmp eq %"class.google::protobuf::Arena"* %9, null
  br i1 %10, label %11, label %22

; <label>:11:                                     ; preds = %2
  %12 = getelementptr inbounds %"class.simpleproto2::Bar", %"class.simpleproto2::Bar"* %7, i32 0, i32 2
  %13 = load %"class.simpleproto2::Foo"*, %"class.simpleproto2::Foo"** %12, align 8
  %14 = icmp eq %"class.simpleproto2::Foo"* %13, null
  br i1 %14, label %21, label %15

; <label>:15:                                     ; preds = %11
  %16 = bitcast %"class.simpleproto2::Foo"* %13 to i8* (%"class.simpleproto2::Foo"*, i32)***
  %17 = load i8* (%"class.simpleproto2::Foo"*, i32)**, i8* (%"class.simpleproto2::Foo"*, i32)*** %16, align 8
  %18 = getelementptr inbounds i8* (%"class.simpleproto2::Foo"*, i32)*, i8* (%"class.simpleproto2::Foo"*, i32)** %17, i64 0
  %19 = load i8* (%"class.simpleproto2::Foo"*, i32)*, i8* (%"class.simpleproto2::Foo"*, i32)** %18, align 8
  %20 = call i8* %19(%"class.simpleproto2::Foo"* %13, i32 1) #9
  br label %21

; <label>:21:                                     ; preds = %15, %11
  br label %22

; <label>:22:                                     ; preds = %21, %2
  %23 = load %"class.simpleproto2::Foo"*, %"class.simpleproto2::Foo"** %3, align 8
  %24 = icmp ne %"class.simpleproto2::Foo"* %23, null
  br i1 %24, label %25, label %35

; <label>:25:                                     ; preds = %22
  store %"class.google::protobuf::Arena"* null, %"class.google::protobuf::Arena"** %6, align 8
  %26 = load %"class.google::protobuf::Arena"*, %"class.google::protobuf::Arena"** %5, align 8
  %27 = load %"class.google::protobuf::Arena"*, %"class.google::protobuf::Arena"** %6, align 8
  %28 = icmp ne %"class.google::protobuf::Arena"* %26, %27
  br i1 %28, label %29, label %34

; <label>:29:                                     ; preds = %25
  %30 = load %"class.google::protobuf::Arena"*, %"class.google::protobuf::Arena"** %6, align 8
  %31 = load %"class.simpleproto2::Foo"*, %"class.simpleproto2::Foo"** %3, align 8
  %32 = load %"class.google::protobuf::Arena"*, %"class.google::protobuf::Arena"** %5, align 8
  %33 = call %"class.simpleproto2::Foo"* @"\01??$GetOwnedMessage@VFoo@simpleproto2@@@internal@protobuf@google@@YAPEAVFoo@simpleproto2@@PEAVArena@12@PEAV34@0@Z"(%"class.google::protobuf::Arena"* %32, %"class.simpleproto2::Foo"* %31, %"class.google::protobuf::Arena"* %30)
  store %"class.simpleproto2::Foo"* %33, %"class.simpleproto2::Foo"** %3, align 8
  br label %34

; <label>:34:                                     ; preds = %29, %25
  br label %36

; <label>:35:                                     ; preds = %22
  br label %36

; <label>:36:                                     ; preds = %35, %34
  %37 = load %"class.simpleproto2::Foo"*, %"class.simpleproto2::Foo"** %3, align 8
  %38 = getelementptr inbounds %"class.simpleproto2::Bar", %"class.simpleproto2::Bar"* %7, i32 0, i32 2
  store %"class.simpleproto2::Foo"* %37, %"class.simpleproto2::Foo"** %38, align 8
  ret void
}

; Function Attrs: noinline nounwind optnone uwtable
define linkonce_odr void @"\01?set_i32@Bar@simpleproto2@@QEAAXH@Z"(%"class.simpleproto2::Bar"*, i32) #1 comdat align 2 {
  %3 = alloca i32, align 4
  %4 = alloca %"class.simpleproto2::Bar"*, align 8
  store i32 %1, i32* %3, align 4
  store %"class.simpleproto2::Bar"* %0, %"class.simpleproto2::Bar"** %4, align 8
  %5 = load %"class.simpleproto2::Bar"*, %"class.simpleproto2::Bar"** %4, align 8
  %6 = load i32, i32* %3, align 4
  %7 = getelementptr inbounds %"class.simpleproto2::Bar", %"class.simpleproto2::Bar"* %5, i32 0, i32 3
  store i32 %6, i32* %7, align 8
  ret void
}

; Function Attrs: nobuiltin nounwind
declare void @"\01??3@YAXPEAX@Z"(i8*) #5

; Function Attrs: noinline nounwind optnone uwtable
define linkonce_odr %"class.google::protobuf::Arena"* @"\01?GetArenaNoVirtual@Bar@simpleproto2@@AEBAPEAVArena@protobuf@google@@XZ"(%"class.simpleproto2::Bar"*) #1 comdat align 2 {
  %2 = alloca %"class.simpleproto2::Bar"*, align 8
  store %"class.simpleproto2::Bar"* %0, %"class.simpleproto2::Bar"** %2, align 8
  %3 = load %"class.simpleproto2::Bar"*, %"class.simpleproto2::Bar"** %2, align 8
  ret %"class.google::protobuf::Arena"* null
}

; Function Attrs: noinline optnone uwtable
define linkonce_odr %"class.simpleproto2::Foo"* @"\01??$GetOwnedMessage@VFoo@simpleproto2@@@internal@protobuf@google@@YAPEAVFoo@simpleproto2@@PEAVArena@12@PEAV34@0@Z"(%"class.google::protobuf::Arena"*, %"class.simpleproto2::Foo"*, %"class.google::protobuf::Arena"*) #0 comdat {
  %4 = alloca %"class.google::protobuf::Arena"*, align 8
  %5 = alloca %"class.simpleproto2::Foo"*, align 8
  %6 = alloca %"class.google::protobuf::Arena"*, align 8
  store %"class.google::protobuf::Arena"* %2, %"class.google::protobuf::Arena"** %4, align 8
  store %"class.simpleproto2::Foo"* %1, %"class.simpleproto2::Foo"** %5, align 8
  store %"class.google::protobuf::Arena"* %0, %"class.google::protobuf::Arena"** %6, align 8
  %7 = load %"class.google::protobuf::Arena"*, %"class.google::protobuf::Arena"** %4, align 8
  %8 = load %"class.simpleproto2::Foo"*, %"class.simpleproto2::Foo"** %5, align 8
  %9 = bitcast %"class.simpleproto2::Foo"* %8 to %"class.google::protobuf::MessageLite"*
  %10 = load %"class.google::protobuf::Arena"*, %"class.google::protobuf::Arena"** %6, align 8
  %11 = call %"class.google::protobuf::MessageLite"* @"\01?GetOwnedMessageInternal@internal@protobuf@google@@YAPEAVMessageLite@23@PEAVArena@23@PEAV423@0@Z"(%"class.google::protobuf::Arena"* %10, %"class.google::protobuf::MessageLite"* %9, %"class.google::protobuf::Arena"* %7)
  %12 = bitcast %"class.google::protobuf::MessageLite"* %11 to %"class.simpleproto2::Foo"*
  ret %"class.simpleproto2::Foo"* %12
}

declare %"class.google::protobuf::MessageLite"* @"\01?GetOwnedMessageInternal@internal@protobuf@google@@YAPEAVMessageLite@23@PEAVArena@23@PEAV423@0@Z"(%"class.google::protobuf::Arena"*, %"class.google::protobuf::MessageLite"*, %"class.google::protobuf::Arena"*) #2

; Function Attrs: noinline optnone uwtable
define linkonce_odr void @"\01?_Tidy_deallocate@?$basic_string@DU?$char_traits@D@std@@V?$allocator@D@2@@std@@QEAAXXZ"(%"class.std::basic_string"*) #0 comdat align 2 {
  %2 = alloca %"class.std::basic_string"*, align 8
  %3 = alloca %"class.std::_String_val"*, align 8
  %4 = alloca i8*, align 8
  %5 = alloca %"class.std::allocator"*, align 8
  %6 = alloca i8, align 1
  store %"class.std::basic_string"* %0, %"class.std::basic_string"** %2, align 8
  %7 = load %"class.std::basic_string"*, %"class.std::basic_string"** %2, align 8
  %8 = bitcast %"class.std::basic_string"* %7 to %"class.std::_String_alloc"*
  call void @"\01?_Orphan_all@?$_String_alloc@U?$_String_base_types@DV?$allocator@D@std@@@std@@@std@@QEAAXXZ"(%"class.std::_String_alloc"* %8)
  %9 = bitcast %"class.std::basic_string"* %7 to %"class.std::_String_alloc"*
  %10 = call dereferenceable(32) %"class.std::_String_val"* @"\01?_Get_data@?$_String_alloc@U?$_String_base_types@DV?$allocator@D@std@@@std@@@std@@QEAAAEAV?$_String_val@U?$_Simple_types@D@std@@@2@XZ"(%"class.std::_String_alloc"* %9) #9
  store %"class.std::_String_val"* %10, %"class.std::_String_val"** %3, align 8
  %11 = load %"class.std::_String_val"*, %"class.std::_String_val"** %3, align 8
  %12 = call zeroext i1 @"\01?_Large_string_engaged@?$_String_val@U?$_Simple_types@D@std@@@std@@QEBA_NXZ"(%"class.std::_String_val"* %11)
  br i1 %12, label %13, label %31

; <label>:13:                                     ; preds = %1
  %14 = load %"class.std::_String_val"*, %"class.std::_String_val"** %3, align 8
  %15 = getelementptr inbounds %"class.std::_String_val", %"class.std::_String_val"* %14, i32 0, i32 0
  %16 = bitcast %"union.std::_String_val<std::_Simple_types<char> >::_Bxty"* %15 to i8**
  %17 = load i8*, i8** %16, align 8
  store i8* %17, i8** %4, align 8
  %18 = bitcast %"class.std::basic_string"* %7 to %"class.std::_String_alloc"*
  %19 = call dereferenceable(1) %"class.std::allocator"* @"\01?_Getal@?$_String_alloc@U?$_String_base_types@DV?$allocator@D@std@@@std@@@std@@QEAAAEAV?$allocator@D@2@XZ"(%"class.std::_String_alloc"* %18) #9
  store %"class.std::allocator"* %19, %"class.std::allocator"** %5, align 8
  %20 = load %"class.std::_String_val"*, %"class.std::_String_val"** %3, align 8
  %21 = getelementptr inbounds %"class.std::_String_val", %"class.std::_String_val"* %20, i32 0, i32 0
  %22 = bitcast %"union.std::_String_val<std::_Simple_types<char> >::_Bxty"* %21 to i8**
  %23 = call i8** @"\01??$addressof@PEAD@std@@YAPEAPEADAEAPEAD@Z"(i8** dereferenceable(8) %22) #9
  %24 = load %"class.std::allocator"*, %"class.std::allocator"** %5, align 8
  call void @"\01??$destroy@PEAD@?$_Default_allocator_traits@V?$allocator@D@std@@@std@@SAXAEAV?$allocator@D@1@QEAPEAD@Z"(%"class.std::allocator"* dereferenceable(1) %24, i8** %23)
  %25 = load %"class.std::allocator"*, %"class.std::allocator"** %5, align 8
  %26 = load %"class.std::_String_val"*, %"class.std::_String_val"** %3, align 8
  %27 = getelementptr inbounds %"class.std::_String_val", %"class.std::_String_val"* %26, i32 0, i32 2
  %28 = load i64, i64* %27, align 8
  %29 = add i64 %28, 1
  %30 = load i8*, i8** %4, align 8
  call void @"\01?deallocate@?$allocator@D@std@@QEAAXQEAD_K@Z"(%"class.std::allocator"* %25, i8* %30, i64 %29)
  br label %31

; <label>:31:                                     ; preds = %13, %1
  %32 = load %"class.std::_String_val"*, %"class.std::_String_val"** %3, align 8
  %33 = getelementptr inbounds %"class.std::_String_val", %"class.std::_String_val"* %32, i32 0, i32 1
  store i64 0, i64* %33, align 8
  %34 = load %"class.std::_String_val"*, %"class.std::_String_val"** %3, align 8
  %35 = getelementptr inbounds %"class.std::_String_val", %"class.std::_String_val"* %34, i32 0, i32 2
  store i64 15, i64* %35, align 8
  store i8 0, i8* %6, align 1
  %36 = load %"class.std::_String_val"*, %"class.std::_String_val"** %3, align 8
  %37 = getelementptr inbounds %"class.std::_String_val", %"class.std::_String_val"* %36, i32 0, i32 0
  %38 = bitcast %"union.std::_String_val<std::_Simple_types<char> >::_Bxty"* %37 to [16 x i8]*
  %39 = getelementptr inbounds [16 x i8], [16 x i8]* %38, i64 0, i64 0
  call void @"\01?assign@?$char_traits@D@std@@SAXAEADAEBD@Z"(i8* dereferenceable(1) %39, i8* dereferenceable(1) %6) #9
  ret void
}

; Function Attrs: noinline nounwind optnone uwtable
define linkonce_odr void @"\01??1?$_String_alloc@U?$_String_base_types@DV?$allocator@D@std@@@std@@@std@@QEAA@XZ"(%"class.std::_String_alloc"*) unnamed_addr #1 comdat align 2 {
  %2 = alloca %"class.std::_String_alloc"*, align 8
  store %"class.std::_String_alloc"* %0, %"class.std::_String_alloc"** %2, align 8
  %3 = load %"class.std::_String_alloc"*, %"class.std::_String_alloc"** %2, align 8
  %4 = getelementptr inbounds %"class.std::_String_alloc", %"class.std::_String_alloc"* %3, i32 0, i32 0
  call void @"\01??1?$_Compressed_pair@V?$allocator@D@std@@V?$_String_val@U?$_Simple_types@D@std@@@2@$00@std@@QEAA@XZ"(%"class.std::_Compressed_pair"* %4) #9
  ret void
}

declare dllimport void @__std_terminate()

; Function Attrs: noinline nounwind optnone uwtable
define linkonce_odr void @"\01??1?$_Compressed_pair@V?$allocator@D@std@@V?$_String_val@U?$_Simple_types@D@std@@@2@$00@std@@QEAA@XZ"(%"class.std::_Compressed_pair"*) unnamed_addr #1 comdat align 2 {
  %2 = alloca %"class.std::_Compressed_pair"*, align 8
  store %"class.std::_Compressed_pair"* %0, %"class.std::_Compressed_pair"** %2, align 8
  %3 = load %"class.std::_Compressed_pair"*, %"class.std::_Compressed_pair"** %2, align 8
  %4 = getelementptr inbounds %"class.std::_Compressed_pair", %"class.std::_Compressed_pair"* %3, i32 0, i32 0
  call void @"\01??1?$_String_val@U?$_Simple_types@D@std@@@std@@QEAA@XZ"(%"class.std::_String_val"* %4) #9
  ret void
}

; Function Attrs: noinline nounwind optnone uwtable
define linkonce_odr void @"\01??1?$_String_val@U?$_Simple_types@D@std@@@std@@QEAA@XZ"(%"class.std::_String_val"*) unnamed_addr #1 comdat align 2 {
  %2 = alloca %"class.std::_String_val"*, align 8
  store %"class.std::_String_val"* %0, %"class.std::_String_val"** %2, align 8
  %3 = load %"class.std::_String_val"*, %"class.std::_String_val"** %2, align 8
  %4 = getelementptr inbounds %"class.std::_String_val", %"class.std::_String_val"* %3, i32 0, i32 0
  call void @"\01??1_Bxty@?$_String_val@U?$_Simple_types@D@std@@@std@@QEAA@XZ"(%"union.std::_String_val<std::_Simple_types<char> >::_Bxty"* %4) #9
  ret void
}

; Function Attrs: noinline nounwind optnone uwtable
define linkonce_odr void @"\01??1_Bxty@?$_String_val@U?$_Simple_types@D@std@@@std@@QEAA@XZ"(%"union.std::_String_val<std::_Simple_types<char> >::_Bxty"*) unnamed_addr #1 comdat align 2 {
  %2 = alloca %"union.std::_String_val<std::_Simple_types<char> >::_Bxty"*, align 8
  store %"union.std::_String_val<std::_Simple_types<char> >::_Bxty"* %0, %"union.std::_String_val<std::_Simple_types<char> >::_Bxty"** %2, align 8
  %3 = load %"union.std::_String_val<std::_Simple_types<char> >::_Bxty"*, %"union.std::_String_val<std::_Simple_types<char> >::_Bxty"** %2, align 8
  ret void
}

; Function Attrs: noinline nounwind optnone uwtable
define linkonce_odr void @"\01?_Orphan_all@?$_String_alloc@U?$_String_base_types@DV?$allocator@D@std@@@std@@@std@@QEAAXXZ"(%"class.std::_String_alloc"*) #1 comdat align 2 {
  %2 = alloca %"class.std::_String_alloc"*, align 8
  store %"class.std::_String_alloc"* %0, %"class.std::_String_alloc"** %2, align 8
  %3 = load %"class.std::_String_alloc"*, %"class.std::_String_alloc"** %2, align 8
  %4 = call dereferenceable(32) %"class.std::_String_val"* @"\01?_Get_data@?$_String_alloc@U?$_String_base_types@DV?$allocator@D@std@@@std@@@std@@QEAAAEAV?$_String_val@U?$_Simple_types@D@std@@@2@XZ"(%"class.std::_String_alloc"* %3) #9
  %5 = bitcast %"class.std::_String_val"* %4 to %"class.std::allocator"*
  call void @"\01?_Orphan_all@_Container_base0@std@@QEAAXXZ"(%"class.std::allocator"* %5) #9
  ret void
}

; Function Attrs: noinline nounwind optnone uwtable
define linkonce_odr dereferenceable(32) %"class.std::_String_val"* @"\01?_Get_data@?$_String_alloc@U?$_String_base_types@DV?$allocator@D@std@@@std@@@std@@QEAAAEAV?$_String_val@U?$_Simple_types@D@std@@@2@XZ"(%"class.std::_String_alloc"*) #1 comdat align 2 {
  %2 = alloca %"class.std::_String_alloc"*, align 8
  store %"class.std::_String_alloc"* %0, %"class.std::_String_alloc"** %2, align 8
  %3 = load %"class.std::_String_alloc"*, %"class.std::_String_alloc"** %2, align 8
  %4 = getelementptr inbounds %"class.std::_String_alloc", %"class.std::_String_alloc"* %3, i32 0, i32 0
  %5 = call dereferenceable(32) %"class.std::_String_val"* @"\01?_Get_second@?$_Compressed_pair@V?$allocator@D@std@@V?$_String_val@U?$_Simple_types@D@std@@@2@$00@std@@QEAAAEAV?$_String_val@U?$_Simple_types@D@std@@@2@XZ"(%"class.std::_Compressed_pair"* %4) #9
  ret %"class.std::_String_val"* %5
}

; Function Attrs: noinline nounwind optnone uwtable
define linkonce_odr zeroext i1 @"\01?_Large_string_engaged@?$_String_val@U?$_Simple_types@D@std@@@std@@QEBA_NXZ"(%"class.std::_String_val"*) #1 comdat align 2 {
  %2 = alloca %"class.std::_String_val"*, align 8
  store %"class.std::_String_val"* %0, %"class.std::_String_val"** %2, align 8
  %3 = load %"class.std::_String_val"*, %"class.std::_String_val"** %2, align 8
  %4 = getelementptr inbounds %"class.std::_String_val", %"class.std::_String_val"* %3, i32 0, i32 2
  %5 = load i64, i64* %4, align 8
  %6 = icmp ule i64 16, %5
  ret i1 %6
}

; Function Attrs: noinline nounwind optnone uwtable
define linkonce_odr dereferenceable(1) %"class.std::allocator"* @"\01?_Getal@?$_String_alloc@U?$_String_base_types@DV?$allocator@D@std@@@std@@@std@@QEAAAEAV?$allocator@D@2@XZ"(%"class.std::_String_alloc"*) #1 comdat align 2 {
  %2 = alloca %"class.std::_String_alloc"*, align 8
  store %"class.std::_String_alloc"* %0, %"class.std::_String_alloc"** %2, align 8
  %3 = load %"class.std::_String_alloc"*, %"class.std::_String_alloc"** %2, align 8
  %4 = getelementptr inbounds %"class.std::_String_alloc", %"class.std::_String_alloc"* %3, i32 0, i32 0
  %5 = call dereferenceable(1) %"class.std::allocator"* @"\01?_Get_first@?$_Compressed_pair@V?$allocator@D@std@@V?$_String_val@U?$_Simple_types@D@std@@@2@$00@std@@QEAAAEAV?$allocator@D@2@XZ"(%"class.std::_Compressed_pair"* %4) #9
  ret %"class.std::allocator"* %5
}

; Function Attrs: noinline nounwind optnone uwtable
define linkonce_odr i8** @"\01??$addressof@PEAD@std@@YAPEAPEADAEAPEAD@Z"(i8** dereferenceable(8)) #1 comdat {
  %2 = alloca i8**, align 8
  store i8** %0, i8*** %2, align 8
  %3 = load i8**, i8*** %2, align 8
  ret i8** %3
}

; Function Attrs: noinline nounwind optnone uwtable
define linkonce_odr void @"\01??$destroy@PEAD@?$_Default_allocator_traits@V?$allocator@D@std@@@std@@SAXAEAV?$allocator@D@1@QEAPEAD@Z"(%"class.std::allocator"* dereferenceable(1), i8**) #1 comdat align 2 {
  %3 = alloca i8**, align 8
  %4 = alloca %"class.std::allocator"*, align 8
  store i8** %1, i8*** %3, align 8
  store %"class.std::allocator"* %0, %"class.std::allocator"** %4, align 8
  ret void
}

; Function Attrs: noinline optnone uwtable
define linkonce_odr void @"\01?deallocate@?$allocator@D@std@@QEAAXQEAD_K@Z"(%"class.std::allocator"*, i8*, i64) #0 comdat align 2 {
  %4 = alloca i64, align 8
  %5 = alloca i8*, align 8
  %6 = alloca %"class.std::allocator"*, align 8
  store i64 %2, i64* %4, align 8
  store i8* %1, i8** %5, align 8
  store %"class.std::allocator"* %0, %"class.std::allocator"** %6, align 8
  %7 = load %"class.std::allocator"*, %"class.std::allocator"** %6, align 8
  %8 = load i64, i64* %4, align 8
  %9 = mul i64 1, %8
  %10 = load i8*, i8** %5, align 8
  call void @"\01??$_Deallocate@$0BA@$0A@@std@@YAXPEAX_K@Z"(i8* %10, i64 %9)
  ret void
}

; Function Attrs: noinline nounwind optnone uwtable
define linkonce_odr void @"\01?assign@?$char_traits@D@std@@SAXAEADAEBD@Z"(i8* dereferenceable(1), i8* dereferenceable(1)) #1 comdat align 2 {
  %3 = alloca i8*, align 8
  %4 = alloca i8*, align 8
  store i8* %1, i8** %3, align 8
  store i8* %0, i8** %4, align 8
  %5 = load i8*, i8** %3, align 8
  %6 = load i8, i8* %5, align 1
  %7 = load i8*, i8** %4, align 8
  store i8 %6, i8* %7, align 1
  ret void
}

; Function Attrs: noinline optnone uwtable
define linkonce_odr void @"\01??$_Deallocate@$0BA@$0A@@std@@YAXPEAX_K@Z"(i8*, i64) #0 comdat {
  %3 = alloca i64, align 8
  %4 = alloca i8*, align 8
  store i64 %1, i64* %3, align 8
  store i8* %0, i8** %4, align 8
  %5 = load i64, i64* %3, align 8
  %6 = icmp uge i64 %5, 4096
  br i1 %6, label %7, label %8

; <label>:7:                                      ; preds = %2
  call void @"\01?_Adjust_manually_vector_aligned@std@@YAXAEAPEAXAEA_K@Z"(i8** dereferenceable(8) %4, i64* dereferenceable(8) %3)
  br label %8

; <label>:8:                                      ; preds = %7, %2
  %9 = load i64, i64* %3, align 8
  %10 = load i8*, i8** %4, align 8
  call void @"\01??3@YAXPEAX_K@Z"(i8* %10, i64 %9) #9
  ret void
}

; Function Attrs: noinline optnone uwtable
define linkonce_odr void @"\01?_Adjust_manually_vector_aligned@std@@YAXAEAPEAXAEA_K@Z"(i8** dereferenceable(8), i64* dereferenceable(8)) #0 comdat {
  %3 = alloca i64*, align 8
  %4 = alloca i8**, align 8
  %5 = alloca i64*, align 8
  %6 = alloca i64, align 8
  %7 = alloca i64, align 8
  %8 = alloca i64, align 8
  store i64* %1, i64** %3, align 8
  store i8** %0, i8*** %4, align 8
  %9 = load i64*, i64** %3, align 8
  %10 = load i64, i64* %9, align 8
  %11 = add i64 %10, 39
  store i64 %11, i64* %9, align 8
  %12 = load i8**, i8*** %4, align 8
  %13 = load i8*, i8** %12, align 8
  %14 = bitcast i8* %13 to i64*
  store i64* %14, i64** %5, align 8
  %15 = load i64*, i64** %5, align 8
  %16 = getelementptr inbounds i64, i64* %15, i64 -1
  %17 = load i64, i64* %16, align 8
  store i64 %17, i64* %6, align 8
  store i64 8, i64* %7, align 8
  %18 = load i8**, i8*** %4, align 8
  %19 = load i8*, i8** %18, align 8
  %20 = ptrtoint i8* %19 to i64
  %21 = load i64, i64* %6, align 8
  %22 = sub i64 %20, %21
  store i64 %22, i64* %8, align 8
  br label %23

; <label>:23:                                     ; preds = %2
  %24 = load i64, i64* %8, align 8
  %25 = icmp uge i64 %24, 8
  br i1 %25, label %26, label %30

; <label>:26:                                     ; preds = %23
  %27 = load i64, i64* %8, align 8
  %28 = icmp ule i64 %27, 39
  br i1 %28, label %29, label %30

; <label>:29:                                     ; preds = %26
  br label %33

; <label>:30:                                     ; preds = %26, %23
  br label %31

; <label>:31:                                     ; preds = %30
  call void @_invalid_parameter_noinfo_noreturn() #13
  unreachable
                                                  ; No predecessors!
  br label %33

; <label>:33:                                     ; preds = %32, %29
  br label %34

; <label>:34:                                     ; preds = %33
  %35 = load i64, i64* %6, align 8
  %36 = inttoptr i64 %35 to i8*
  %37 = load i8**, i8*** %4, align 8
  store i8* %36, i8** %37, align 8
  ret void
}

; Function Attrs: nounwind
declare void @"\01??3@YAXPEAX_K@Z"(i8*, i64) #3

; Function Attrs: noreturn
declare void @_invalid_parameter_noinfo_noreturn() #6

; Function Attrs: noinline nounwind optnone uwtable
define linkonce_odr dereferenceable(1) %"class.std::allocator"* @"\01?_Get_first@?$_Compressed_pair@V?$allocator@D@std@@V?$_String_val@U?$_Simple_types@D@std@@@2@$00@std@@QEAAAEAV?$allocator@D@2@XZ"(%"class.std::_Compressed_pair"*) #1 comdat align 2 {
  %2 = alloca %"class.std::_Compressed_pair"*, align 8
  store %"class.std::_Compressed_pair"* %0, %"class.std::_Compressed_pair"** %2, align 8
  %3 = load %"class.std::_Compressed_pair"*, %"class.std::_Compressed_pair"** %2, align 8
  %4 = bitcast %"class.std::_Compressed_pair"* %3 to %"class.std::allocator"*
  ret %"class.std::allocator"* %4
}

; Function Attrs: noinline nounwind optnone uwtable
define linkonce_odr dereferenceable(32) %"class.std::_String_val"* @"\01?_Get_second@?$_Compressed_pair@V?$allocator@D@std@@V?$_String_val@U?$_Simple_types@D@std@@@2@$00@std@@QEAAAEAV?$_String_val@U?$_Simple_types@D@std@@@2@XZ"(%"class.std::_Compressed_pair"*) #1 comdat align 2 {
  %2 = alloca %"class.std::_Compressed_pair"*, align 8
  store %"class.std::_Compressed_pair"* %0, %"class.std::_Compressed_pair"** %2, align 8
  %3 = load %"class.std::_Compressed_pair"*, %"class.std::_Compressed_pair"** %2, align 8
  %4 = getelementptr inbounds %"class.std::_Compressed_pair", %"class.std::_Compressed_pair"* %3, i32 0, i32 0
  ret %"class.std::_String_val"* %4
}

; Function Attrs: noinline nounwind optnone uwtable
define linkonce_odr void @"\01?_Orphan_all@_Container_base0@std@@QEAAXXZ"(%"class.std::allocator"*) #1 comdat align 2 {
  %2 = alloca %"class.std::allocator"*, align 8
  store %"class.std::allocator"* %0, %"class.std::allocator"** %2, align 8
  %3 = load %"class.std::allocator"*, %"class.std::allocator"** %2, align 8
  ret void
}

; Function Attrs: noinline nounwind optnone uwtable
define linkonce_odr dereferenceable(32) %"class.std::basic_string"* @"\01??$move@AEAV?$basic_string@DU?$char_traits@D@std@@V?$allocator@D@2@@std@@@std@@YA$$QEAV?$basic_string@DU?$char_traits@D@std@@V?$allocator@D@2@@0@AEAV10@@Z"(%"class.std::basic_string"* dereferenceable(32)) #1 comdat {
  %2 = alloca %"class.std::basic_string"*, align 8
  store %"class.std::basic_string"* %0, %"class.std::basic_string"** %2, align 8
  %3 = load %"class.std::basic_string"*, %"class.std::basic_string"** %2, align 8
  ret %"class.std::basic_string"* %3
}

; Function Attrs: noinline optnone uwtable
define linkonce_odr dereferenceable(32) %"class.std::basic_string"* @"\01?GetEmptyStringAlreadyInited@internal@protobuf@google@@YAAEBV?$basic_string@DU?$char_traits@D@std@@V?$allocator@D@2@@std@@XZ"() #0 comdat {
  %1 = call dereferenceable(32) %"class.std::basic_string"* @"\01?get@?$ExplicitlyConstructed@V?$basic_string@DU?$char_traits@D@std@@V?$allocator@D@2@@std@@@internal@protobuf@google@@QEBAAEBV?$basic_string@DU?$char_traits@D@std@@V?$allocator@D@2@@std@@XZ"(%"class.google::protobuf::internal::ExplicitlyConstructed"* @"\01?fixed_address_empty_string@internal@protobuf@google@@3V?$ExplicitlyConstructed@V?$basic_string@DU?$char_traits@D@std@@V?$allocator@D@2@@std@@@123@A")
  ret %"class.std::basic_string"* %1
}

; Function Attrs: noinline optnone uwtable
define linkonce_odr void @"\01?SetNoArena@ArenaStringPtr@internal@protobuf@google@@QEAAXPEBV?$basic_string@DU?$char_traits@D@std@@V?$allocator@D@2@@std@@$$QEAV56@@Z"(%"struct.google::protobuf::internal::ArenaStringPtr"*, %"class.std::basic_string"*, %"class.std::basic_string"* dereferenceable(32)) #0 comdat align 2 {
  %4 = alloca %"class.std::basic_string"*, align 8
  %5 = alloca %"class.std::basic_string"*, align 8
  %6 = alloca %"struct.google::protobuf::internal::ArenaStringPtr"*, align 8
  store %"class.std::basic_string"* %2, %"class.std::basic_string"** %4, align 8
  store %"class.std::basic_string"* %1, %"class.std::basic_string"** %5, align 8
  store %"struct.google::protobuf::internal::ArenaStringPtr"* %0, %"struct.google::protobuf::internal::ArenaStringPtr"** %6, align 8
  %7 = load %"struct.google::protobuf::internal::ArenaStringPtr"*, %"struct.google::protobuf::internal::ArenaStringPtr"** %6, align 8
  %8 = load %"class.std::basic_string"*, %"class.std::basic_string"** %5, align 8
  %9 = call zeroext i1 @"\01?IsDefault@ArenaStringPtr@internal@protobuf@google@@QEBA_NPEBV?$basic_string@DU?$char_traits@D@std@@V?$allocator@D@2@@std@@@Z"(%"struct.google::protobuf::internal::ArenaStringPtr"* %7, %"class.std::basic_string"* %8)
  br i1 %9, label %10, label %17

; <label>:10:                                     ; preds = %3
  %11 = call i8* @"\01??2@YAPEAX_K@Z"(i64 32) #11
  %12 = bitcast i8* %11 to %"class.std::basic_string"*
  %13 = load %"class.std::basic_string"*, %"class.std::basic_string"** %4, align 8
  %14 = call dereferenceable(32) %"class.std::basic_string"* @"\01??$move@AEAV?$basic_string@DU?$char_traits@D@std@@V?$allocator@D@2@@std@@@std@@YA$$QEAV?$basic_string@DU?$char_traits@D@std@@V?$allocator@D@2@@0@AEAV10@@Z"(%"class.std::basic_string"* dereferenceable(32) %13) #9
  %15 = call %"class.std::basic_string"* @"\01??0?$basic_string@DU?$char_traits@D@std@@V?$allocator@D@2@@std@@QEAA@$$QEAV01@@Z"(%"class.std::basic_string"* %12, %"class.std::basic_string"* dereferenceable(32) %14) #9
  %16 = getelementptr inbounds %"struct.google::protobuf::internal::ArenaStringPtr", %"struct.google::protobuf::internal::ArenaStringPtr"* %7, i32 0, i32 0
  store %"class.std::basic_string"* %12, %"class.std::basic_string"** %16, align 8
  br label %23

; <label>:17:                                     ; preds = %3
  %18 = load %"class.std::basic_string"*, %"class.std::basic_string"** %4, align 8
  %19 = call dereferenceable(32) %"class.std::basic_string"* @"\01??$move@AEAV?$basic_string@DU?$char_traits@D@std@@V?$allocator@D@2@@std@@@std@@YA$$QEAV?$basic_string@DU?$char_traits@D@std@@V?$allocator@D@2@@0@AEAV10@@Z"(%"class.std::basic_string"* dereferenceable(32) %18) #9
  %20 = getelementptr inbounds %"struct.google::protobuf::internal::ArenaStringPtr", %"struct.google::protobuf::internal::ArenaStringPtr"* %7, i32 0, i32 0
  %21 = load %"class.std::basic_string"*, %"class.std::basic_string"** %20, align 8
  %22 = call dereferenceable(32) %"class.std::basic_string"* @"\01??4?$basic_string@DU?$char_traits@D@std@@V?$allocator@D@2@@std@@QEAAAEAV01@$$QEAV01@@Z"(%"class.std::basic_string"* %21, %"class.std::basic_string"* dereferenceable(32) %19) #9
  br label %23

; <label>:23:                                     ; preds = %17, %10
  ret void
}

; Function Attrs: noinline nounwind optnone uwtable
define linkonce_odr zeroext i1 @"\01?IsDefault@ArenaStringPtr@internal@protobuf@google@@QEBA_NPEBV?$basic_string@DU?$char_traits@D@std@@V?$allocator@D@2@@std@@@Z"(%"struct.google::protobuf::internal::ArenaStringPtr"*, %"class.std::basic_string"*) #1 comdat align 2 {
  %3 = alloca %"class.std::basic_string"*, align 8
  %4 = alloca %"struct.google::protobuf::internal::ArenaStringPtr"*, align 8
  store %"class.std::basic_string"* %1, %"class.std::basic_string"** %3, align 8
  store %"struct.google::protobuf::internal::ArenaStringPtr"* %0, %"struct.google::protobuf::internal::ArenaStringPtr"** %4, align 8
  %5 = load %"struct.google::protobuf::internal::ArenaStringPtr"*, %"struct.google::protobuf::internal::ArenaStringPtr"** %4, align 8
  %6 = getelementptr inbounds %"struct.google::protobuf::internal::ArenaStringPtr", %"struct.google::protobuf::internal::ArenaStringPtr"* %5, i32 0, i32 0
  %7 = load %"class.std::basic_string"*, %"class.std::basic_string"** %6, align 8
  %8 = load %"class.std::basic_string"*, %"class.std::basic_string"** %3, align 8
  %9 = icmp eq %"class.std::basic_string"* %7, %8
  ret i1 %9
}

; Function Attrs: noinline nounwind optnone uwtable
define linkonce_odr %"class.std::basic_string"* @"\01??0?$basic_string@DU?$char_traits@D@std@@V?$allocator@D@2@@std@@QEAA@$$QEAV01@@Z"(%"class.std::basic_string"* returned, %"class.std::basic_string"* dereferenceable(32)) unnamed_addr #1 comdat align 2 personality i8* bitcast (i32 (...)* @__CxxFrameHandler3 to i8*) {
  %3 = alloca %"class.std::basic_string"*, align 8
  %4 = alloca %"class.std::basic_string"*, align 8
  %5 = alloca %"class.std::allocator", align 1
  store %"class.std::basic_string"* %1, %"class.std::basic_string"** %3, align 8
  store %"class.std::basic_string"* %0, %"class.std::basic_string"** %4, align 8
  %6 = load %"class.std::basic_string"*, %"class.std::basic_string"** %4, align 8
  %7 = bitcast %"class.std::basic_string"* %6 to %"class.std::_String_alloc"*
  %8 = load %"class.std::basic_string"*, %"class.std::basic_string"** %3, align 8
  %9 = bitcast %"class.std::basic_string"* %8 to %"class.std::_String_alloc"*
  %10 = call dereferenceable(1) %"class.std::allocator"* @"\01?_Getal@?$_String_alloc@U?$_String_base_types@DV?$allocator@D@std@@@std@@@std@@QEAAAEAV?$allocator@D@2@XZ"(%"class.std::_String_alloc"* %9) #9
  %11 = call dereferenceable(1) %"class.std::allocator"* @"\01??$move@AEAV?$allocator@D@std@@@std@@YA$$QEAV?$allocator@D@0@AEAV10@@Z"(%"class.std::allocator"* dereferenceable(1) %10) #9
  %12 = invoke %"class.std::_String_alloc"* @"\01??$?0V?$allocator@D@std@@X@?$_String_alloc@U?$_String_base_types@DV?$allocator@D@std@@@std@@@std@@QEAA@$$QEAV?$allocator@D@1@@Z"(%"class.std::_String_alloc"* %7, %"class.std::allocator"* dereferenceable(1) %11)
          to label %13 unwind label %18

; <label>:13:                                     ; preds = %2
  %14 = load %"class.std::basic_string"*, %"class.std::basic_string"** %3, align 8
  %15 = call dereferenceable(32) %"class.std::basic_string"* @"\01??$move@AEAV?$basic_string@DU?$char_traits@D@std@@V?$allocator@D@2@@std@@@std@@YA$$QEAV?$basic_string@DU?$char_traits@D@std@@V?$allocator@D@2@@0@AEAV10@@Z"(%"class.std::basic_string"* dereferenceable(32) %14) #9
  %16 = getelementptr inbounds %"class.std::allocator", %"class.std::allocator"* %5, i32 0, i32 0
  %17 = load i8, i8* %16, align 1
  call void @"\01?_Assign_rv_contents_with_alloc_always_equal@?$basic_string@DU?$char_traits@D@std@@V?$allocator@D@2@@std@@QEAAX$$QEAV12@U?$integral_constant@_N$00@2@@Z"(%"class.std::basic_string"* %6, %"class.std::basic_string"* dereferenceable(32) %15, i8 %17) #9
  ret %"class.std::basic_string"* %6

; <label>:18:                                     ; preds = %2
  %19 = cleanuppad within none []
  call void @__std_terminate() #10 [ "funclet"(token %19) ]
  unreachable
}

; Function Attrs: noinline nounwind optnone uwtable
define linkonce_odr dereferenceable(32) %"class.std::basic_string"* @"\01??4?$basic_string@DU?$char_traits@D@std@@V?$allocator@D@2@@std@@QEAAAEAV01@$$QEAV01@@Z"(%"class.std::basic_string"*, %"class.std::basic_string"* dereferenceable(32)) #1 comdat align 2 personality i8* bitcast (i32 (...)* @__CxxFrameHandler3 to i8*) {
  %3 = alloca %"class.std::basic_string"*, align 8
  %4 = alloca %"class.std::basic_string"*, align 8
  %5 = alloca %"class.std::allocator", align 1
  store %"class.std::basic_string"* %1, %"class.std::basic_string"** %3, align 8
  store %"class.std::basic_string"* %0, %"class.std::basic_string"** %4, align 8
  %6 = load %"class.std::basic_string"*, %"class.std::basic_string"** %4, align 8
  %7 = load %"class.std::basic_string"*, %"class.std::basic_string"** %3, align 8
  %8 = call %"class.std::basic_string"* @"\01??$addressof@V?$basic_string@DU?$char_traits@D@std@@V?$allocator@D@2@@std@@@std@@YAPEAV?$basic_string@DU?$char_traits@D@std@@V?$allocator@D@2@@0@AEAV10@@Z"(%"class.std::basic_string"* dereferenceable(32) %7) #9
  %9 = icmp ne %"class.std::basic_string"* %6, %8
  br i1 %9, label %10, label %21

; <label>:10:                                     ; preds = %2
  invoke void @"\01?_Tidy_deallocate@?$basic_string@DU?$char_traits@D@std@@V?$allocator@D@2@@std@@QEAAXXZ"(%"class.std::basic_string"* %6)
          to label %11 unwind label %22

; <label>:11:                                     ; preds = %10
  %12 = bitcast %"class.std::basic_string"* %6 to %"class.std::_String_alloc"*
  %13 = load %"class.std::basic_string"*, %"class.std::basic_string"** %3, align 8
  %14 = bitcast %"class.std::basic_string"* %13 to %"class.std::_String_alloc"*
  %15 = call dereferenceable(1) %"class.std::allocator"* @"\01?_Getal@?$_String_alloc@U?$_String_base_types@DV?$allocator@D@std@@@std@@@std@@QEAAAEAV?$allocator@D@2@XZ"(%"class.std::_String_alloc"* %14) #9
  invoke void @"\01?_Move_alloc@?$_String_alloc@U?$_String_base_types@DV?$allocator@D@std@@@std@@@std@@QEAAXAEAV?$allocator@D@2@@Z"(%"class.std::_String_alloc"* %12, %"class.std::allocator"* dereferenceable(1) %15)
          to label %16 unwind label %22

; <label>:16:                                     ; preds = %11
  %17 = load %"class.std::basic_string"*, %"class.std::basic_string"** %3, align 8
  %18 = call dereferenceable(32) %"class.std::basic_string"* @"\01??$move@AEAV?$basic_string@DU?$char_traits@D@std@@V?$allocator@D@2@@std@@@std@@YA$$QEAV?$basic_string@DU?$char_traits@D@std@@V?$allocator@D@2@@0@AEAV10@@Z"(%"class.std::basic_string"* dereferenceable(32) %17) #9
  %19 = getelementptr inbounds %"class.std::allocator", %"class.std::allocator"* %5, i32 0, i32 0
  %20 = load i8, i8* %19, align 1
  call void @"\01?_Assign_rv_contents@?$basic_string@DU?$char_traits@D@std@@V?$allocator@D@2@@std@@QEAAX$$QEAV12@U?$integral_constant@_N$00@2@@Z"(%"class.std::basic_string"* %6, %"class.std::basic_string"* dereferenceable(32) %18, i8 %20) #9
  br label %21

; <label>:21:                                     ; preds = %16, %2
  ret %"class.std::basic_string"* %6

; <label>:22:                                     ; preds = %11, %10
  %23 = cleanuppad within none []
  call void @__std_terminate() #10 [ "funclet"(token %23) ]
  unreachable
}

; Function Attrs: noinline nounwind optnone uwtable
define linkonce_odr %"class.std::basic_string"* @"\01??$addressof@V?$basic_string@DU?$char_traits@D@std@@V?$allocator@D@2@@std@@@std@@YAPEAV?$basic_string@DU?$char_traits@D@std@@V?$allocator@D@2@@0@AEAV10@@Z"(%"class.std::basic_string"* dereferenceable(32)) #1 comdat {
  %2 = alloca %"class.std::basic_string"*, align 8
  store %"class.std::basic_string"* %0, %"class.std::basic_string"** %2, align 8
  %3 = load %"class.std::basic_string"*, %"class.std::basic_string"** %2, align 8
  ret %"class.std::basic_string"* %3
}

; Function Attrs: noinline nounwind optnone uwtable
define linkonce_odr void @"\01?_Move_alloc@?$_String_alloc@U?$_String_base_types@DV?$allocator@D@std@@@std@@@std@@QEAAXAEAV?$allocator@D@2@@Z"(%"class.std::_String_alloc"*, %"class.std::allocator"* dereferenceable(1)) #1 comdat align 2 {
  %3 = alloca %"class.std::allocator"*, align 8
  %4 = alloca %"class.std::_String_alloc"*, align 8
  store %"class.std::allocator"* %1, %"class.std::allocator"** %3, align 8
  store %"class.std::_String_alloc"* %0, %"class.std::_String_alloc"** %4, align 8
  %5 = load %"class.std::_String_alloc"*, %"class.std::_String_alloc"** %4, align 8
  %6 = load %"class.std::allocator"*, %"class.std::allocator"** %3, align 8
  %7 = call dereferenceable(1) %"class.std::allocator"* @"\01?_Getal@?$_String_alloc@U?$_String_base_types@DV?$allocator@D@std@@@std@@@std@@QEAAAEAV?$allocator@D@2@XZ"(%"class.std::_String_alloc"* %5) #9
  call void @"\01??$_Pocma@V?$allocator@D@std@@@std@@YAXAEAV?$allocator@D@0@0@Z"(%"class.std::allocator"* dereferenceable(1) %7, %"class.std::allocator"* dereferenceable(1) %6) #9
  ret void
}

; Function Attrs: noinline nounwind optnone uwtable
define linkonce_odr void @"\01?_Assign_rv_contents@?$basic_string@DU?$char_traits@D@std@@V?$allocator@D@2@@std@@QEAAX$$QEAV12@U?$integral_constant@_N$00@2@@Z"(%"class.std::basic_string"*, %"class.std::basic_string"* dereferenceable(32), i8) #1 comdat align 2 {
  %4 = alloca %"class.std::allocator", align 1
  %5 = alloca %"class.std::basic_string"*, align 8
  %6 = alloca %"class.std::basic_string"*, align 8
  %7 = alloca %"class.std::allocator", align 1
  %8 = getelementptr inbounds %"class.std::allocator", %"class.std::allocator"* %4, i32 0, i32 0
  store i8 %2, i8* %8, align 1
  store %"class.std::basic_string"* %1, %"class.std::basic_string"** %5, align 8
  store %"class.std::basic_string"* %0, %"class.std::basic_string"** %6, align 8
  %9 = load %"class.std::basic_string"*, %"class.std::basic_string"** %6, align 8
  %10 = load %"class.std::basic_string"*, %"class.std::basic_string"** %5, align 8
  %11 = call dereferenceable(32) %"class.std::basic_string"* @"\01??$move@AEAV?$basic_string@DU?$char_traits@D@std@@V?$allocator@D@2@@std@@@std@@YA$$QEAV?$basic_string@DU?$char_traits@D@std@@V?$allocator@D@2@@0@AEAV10@@Z"(%"class.std::basic_string"* dereferenceable(32) %10) #9
  %12 = getelementptr inbounds %"class.std::allocator", %"class.std::allocator"* %7, i32 0, i32 0
  %13 = load i8, i8* %12, align 1
  call void @"\01?_Assign_rv_contents_with_alloc_always_equal@?$basic_string@DU?$char_traits@D@std@@V?$allocator@D@2@@std@@QEAAX$$QEAV12@U?$integral_constant@_N$00@2@@Z"(%"class.std::basic_string"* %9, %"class.std::basic_string"* dereferenceable(32) %11, i8 %13) #9
  ret void
}

; Function Attrs: noinline nounwind optnone uwtable
define linkonce_odr void @"\01?_Assign_rv_contents_with_alloc_always_equal@?$basic_string@DU?$char_traits@D@std@@V?$allocator@D@2@@std@@QEAAX$$QEAV12@U?$integral_constant@_N$00@2@@Z"(%"class.std::basic_string"*, %"class.std::basic_string"* dereferenceable(32), i8) #1 comdat align 2 personality i8* bitcast (i32 (...)* @__CxxFrameHandler3 to i8*) {
  %4 = alloca %"class.std::allocator", align 1
  %5 = alloca %"class.std::basic_string"*, align 8
  %6 = alloca %"class.std::basic_string"*, align 8
  %7 = alloca %"class.std::_String_val"*, align 8
  %8 = alloca i8*, align 8
  %9 = alloca i8*, align 8
  %10 = getelementptr inbounds %"class.std::allocator", %"class.std::allocator"* %4, i32 0, i32 0
  store i8 %2, i8* %10, align 1
  store %"class.std::basic_string"* %1, %"class.std::basic_string"** %5, align 8
  store %"class.std::basic_string"* %0, %"class.std::basic_string"** %6, align 8
  %11 = load %"class.std::basic_string"*, %"class.std::basic_string"** %6, align 8
  %12 = load %"class.std::basic_string"*, %"class.std::basic_string"** %5, align 8
  %13 = bitcast %"class.std::basic_string"* %12 to %"class.std::_String_alloc"*
  %14 = call dereferenceable(32) %"class.std::_String_val"* @"\01?_Get_data@?$_String_alloc@U?$_String_base_types@DV?$allocator@D@std@@@std@@@std@@QEAAAEAV?$_String_val@U?$_Simple_types@D@std@@@2@XZ"(%"class.std::_String_alloc"* %13) #9
  store %"class.std::_String_val"* %14, %"class.std::_String_val"** %7, align 8
  %15 = bitcast %"class.std::basic_string"* %11 to %"class.std::_String_alloc"*
  %16 = call dereferenceable(32) %"class.std::_String_val"* @"\01?_Get_data@?$_String_alloc@U?$_String_base_types@DV?$allocator@D@std@@@std@@@std@@QEAAAEAV?$_String_val@U?$_Simple_types@D@std@@@2@XZ"(%"class.std::_String_alloc"* %15) #9
  %17 = call %"class.std::_String_val"* @"\01??$addressof@V?$_String_val@U?$_Simple_types@D@std@@@std@@@std@@YAPEAV?$_String_val@U?$_Simple_types@D@std@@@0@AEAV10@@Z"(%"class.std::_String_val"* dereferenceable(32) %16) #9
  %18 = bitcast %"class.std::_String_val"* %17 to i8*
  %19 = getelementptr inbounds i8, i8* %18, i64 0
  store i8* %19, i8** %8, align 8
  %20 = load %"class.std::_String_val"*, %"class.std::_String_val"** %7, align 8
  %21 = call %"class.std::_String_val"* @"\01??$addressof@V?$_String_val@U?$_Simple_types@D@std@@@std@@@std@@YAPEAV?$_String_val@U?$_Simple_types@D@std@@@0@AEAV10@@Z"(%"class.std::_String_val"* dereferenceable(32) %20) #9
  %22 = bitcast %"class.std::_String_val"* %21 to i8*
  %23 = getelementptr inbounds i8, i8* %22, i64 0
  store i8* %23, i8** %9, align 8
  %24 = load i8*, i8** %8, align 8
  %25 = load i8*, i8** %9, align 8
  call void @llvm.memcpy.p0i8.p0i8.i64(i8* %24, i8* %25, i64 32, i32 1, i1 false)
  %26 = load %"class.std::basic_string"*, %"class.std::basic_string"** %5, align 8
  invoke void @"\01?_Tidy_init@?$basic_string@DU?$char_traits@D@std@@V?$allocator@D@2@@std@@QEAAXXZ"(%"class.std::basic_string"* %26)
          to label %27 unwind label %28

; <label>:27:                                     ; preds = %3
  ret void

; <label>:28:                                     ; preds = %3
  %29 = cleanuppad within none []
  call void @__std_terminate() #10 [ "funclet"(token %29) ]
  unreachable
}

; Function Attrs: noinline nounwind optnone uwtable
define linkonce_odr %"class.std::_String_val"* @"\01??$addressof@V?$_String_val@U?$_Simple_types@D@std@@@std@@@std@@YAPEAV?$_String_val@U?$_Simple_types@D@std@@@0@AEAV10@@Z"(%"class.std::_String_val"* dereferenceable(32)) #1 comdat {
  %2 = alloca %"class.std::_String_val"*, align 8
  store %"class.std::_String_val"* %0, %"class.std::_String_val"** %2, align 8
  %3 = load %"class.std::_String_val"*, %"class.std::_String_val"** %2, align 8
  ret %"class.std::_String_val"* %3
}

; Function Attrs: argmemonly nounwind
declare void @llvm.memcpy.p0i8.p0i8.i64(i8* nocapture writeonly, i8* nocapture readonly, i64, i32, i1) #7

; Function Attrs: noinline nounwind optnone uwtable
define linkonce_odr void @"\01?_Tidy_init@?$basic_string@DU?$char_traits@D@std@@V?$allocator@D@2@@std@@QEAAXXZ"(%"class.std::basic_string"*) #1 comdat align 2 {
  %2 = alloca %"class.std::basic_string"*, align 8
  %3 = alloca %"class.std::_String_val"*, align 8
  %4 = alloca i8, align 1
  store %"class.std::basic_string"* %0, %"class.std::basic_string"** %2, align 8
  %5 = load %"class.std::basic_string"*, %"class.std::basic_string"** %2, align 8
  %6 = bitcast %"class.std::basic_string"* %5 to %"class.std::_String_alloc"*
  %7 = call dereferenceable(32) %"class.std::_String_val"* @"\01?_Get_data@?$_String_alloc@U?$_String_base_types@DV?$allocator@D@std@@@std@@@std@@QEAAAEAV?$_String_val@U?$_Simple_types@D@std@@@2@XZ"(%"class.std::_String_alloc"* %6) #9
  store %"class.std::_String_val"* %7, %"class.std::_String_val"** %3, align 8
  %8 = load %"class.std::_String_val"*, %"class.std::_String_val"** %3, align 8
  %9 = getelementptr inbounds %"class.std::_String_val", %"class.std::_String_val"* %8, i32 0, i32 1
  store i64 0, i64* %9, align 8
  %10 = load %"class.std::_String_val"*, %"class.std::_String_val"** %3, align 8
  %11 = getelementptr inbounds %"class.std::_String_val", %"class.std::_String_val"* %10, i32 0, i32 2
  store i64 15, i64* %11, align 8
  store i8 0, i8* %4, align 1
  %12 = load %"class.std::_String_val"*, %"class.std::_String_val"** %3, align 8
  %13 = getelementptr inbounds %"class.std::_String_val", %"class.std::_String_val"* %12, i32 0, i32 0
  %14 = bitcast %"union.std::_String_val<std::_Simple_types<char> >::_Bxty"* %13 to [16 x i8]*
  %15 = getelementptr inbounds [16 x i8], [16 x i8]* %14, i64 0, i64 0
  call void @"\01?assign@?$char_traits@D@std@@SAXAEADAEBD@Z"(i8* dereferenceable(1) %15, i8* dereferenceable(1) %4) #9
  ret void
}

; Function Attrs: noinline nounwind optnone uwtable
define linkonce_odr void @"\01??$_Pocma@V?$allocator@D@std@@@std@@YAXAEAV?$allocator@D@0@0@Z"(%"class.std::allocator"* dereferenceable(1), %"class.std::allocator"* dereferenceable(1)) #1 comdat {
  %3 = alloca %"class.std::allocator"*, align 8
  %4 = alloca %"class.std::allocator"*, align 8
  %5 = alloca %"class.std::allocator", align 1
  %6 = alloca %"class.std::allocator", align 1
  store %"class.std::allocator"* %1, %"class.std::allocator"** %3, align 8
  store %"class.std::allocator"* %0, %"class.std::allocator"** %4, align 8
  %7 = load %"class.std::allocator"*, %"class.std::allocator"** %3, align 8
  %8 = load %"class.std::allocator"*, %"class.std::allocator"** %4, align 8
  %9 = getelementptr inbounds %"class.std::allocator", %"class.std::allocator"* %6, i32 0, i32 0
  %10 = load i8, i8* %9, align 1
  call void @"\01??$_Pocma@V?$allocator@D@std@@@std@@YAXAEAV?$allocator@D@0@0U?$integral_constant@_N$00@0@@Z"(%"class.std::allocator"* dereferenceable(1) %8, %"class.std::allocator"* dereferenceable(1) %7, i8 %10) #9
  ret void
}

; Function Attrs: noinline nounwind optnone uwtable
define linkonce_odr void @"\01??$_Pocma@V?$allocator@D@std@@@std@@YAXAEAV?$allocator@D@0@0U?$integral_constant@_N$00@0@@Z"(%"class.std::allocator"* dereferenceable(1), %"class.std::allocator"* dereferenceable(1), i8) #1 comdat {
  %4 = alloca %"class.std::allocator", align 1
  %5 = alloca %"class.std::allocator"*, align 8
  %6 = alloca %"class.std::allocator"*, align 8
  %7 = getelementptr inbounds %"class.std::allocator", %"class.std::allocator"* %4, i32 0, i32 0
  store i8 %2, i8* %7, align 1
  store %"class.std::allocator"* %1, %"class.std::allocator"** %5, align 8
  store %"class.std::allocator"* %0, %"class.std::allocator"** %6, align 8
  %8 = load %"class.std::allocator"*, %"class.std::allocator"** %5, align 8
  %9 = call dereferenceable(1) %"class.std::allocator"* @"\01??$move@AEAV?$allocator@D@std@@@std@@YA$$QEAV?$allocator@D@0@AEAV10@@Z"(%"class.std::allocator"* dereferenceable(1) %8) #9
  %10 = load %"class.std::allocator"*, %"class.std::allocator"** %6, align 8
  ret void
}

; Function Attrs: noinline nounwind optnone uwtable
define linkonce_odr dereferenceable(1) %"class.std::allocator"* @"\01??$move@AEAV?$allocator@D@std@@@std@@YA$$QEAV?$allocator@D@0@AEAV10@@Z"(%"class.std::allocator"* dereferenceable(1)) #1 comdat {
  %2 = alloca %"class.std::allocator"*, align 8
  store %"class.std::allocator"* %0, %"class.std::allocator"** %2, align 8
  %3 = load %"class.std::allocator"*, %"class.std::allocator"** %2, align 8
  ret %"class.std::allocator"* %3
}

; Function Attrs: noinline optnone uwtable
define linkonce_odr %"class.std::_String_alloc"* @"\01??$?0V?$allocator@D@std@@X@?$_String_alloc@U?$_String_base_types@DV?$allocator@D@std@@@std@@@std@@QEAA@$$QEAV?$allocator@D@1@@Z"(%"class.std::_String_alloc"* returned, %"class.std::allocator"* dereferenceable(1)) unnamed_addr #0 comdat align 2 {
  %3 = alloca %"class.std::allocator"*, align 8
  %4 = alloca %"class.std::_String_alloc"*, align 8
  %5 = alloca %"class.std::allocator", align 1
  store %"class.std::allocator"* %1, %"class.std::allocator"** %3, align 8
  store %"class.std::_String_alloc"* %0, %"class.std::_String_alloc"** %4, align 8
  %6 = load %"class.std::_String_alloc"*, %"class.std::_String_alloc"** %4, align 8
  %7 = getelementptr inbounds %"class.std::_String_alloc", %"class.std::_String_alloc"* %6, i32 0, i32 0
  %8 = load %"class.std::allocator"*, %"class.std::allocator"** %3, align 8
  %9 = call dereferenceable(1) %"class.std::allocator"* @"\01??$forward@V?$allocator@D@std@@@std@@YA$$QEAV?$allocator@D@0@AEAV10@@Z"(%"class.std::allocator"* dereferenceable(1) %8) #9
  %10 = getelementptr inbounds %"class.std::allocator", %"class.std::allocator"* %5, i32 0, i32 0
  %11 = load i8, i8* %10, align 1
  %12 = call %"class.std::_Compressed_pair"* @"\01??$?0V?$allocator@D@std@@$$V@?$_Compressed_pair@V?$allocator@D@std@@V?$_String_val@U?$_Simple_types@D@std@@@2@$00@std@@QEAA@U_One_then_variadic_args_t@1@$$QEAV?$allocator@D@1@@Z"(%"class.std::_Compressed_pair"* %7, i8 %11, %"class.std::allocator"* dereferenceable(1) %9)
  ret %"class.std::_String_alloc"* %6
}

; Function Attrs: noinline nounwind optnone uwtable
define linkonce_odr dereferenceable(1) %"class.std::allocator"* @"\01??$forward@V?$allocator@D@std@@@std@@YA$$QEAV?$allocator@D@0@AEAV10@@Z"(%"class.std::allocator"* dereferenceable(1)) #1 comdat {
  %2 = alloca %"class.std::allocator"*, align 8
  store %"class.std::allocator"* %0, %"class.std::allocator"** %2, align 8
  %3 = load %"class.std::allocator"*, %"class.std::allocator"** %2, align 8
  ret %"class.std::allocator"* %3
}

; Function Attrs: noinline optnone uwtable
define linkonce_odr %"class.std::_Compressed_pair"* @"\01??$?0V?$allocator@D@std@@$$V@?$_Compressed_pair@V?$allocator@D@std@@V?$_String_val@U?$_Simple_types@D@std@@@2@$00@std@@QEAA@U_One_then_variadic_args_t@1@$$QEAV?$allocator@D@1@@Z"(%"class.std::_Compressed_pair"* returned, i8, %"class.std::allocator"* dereferenceable(1)) unnamed_addr #0 comdat align 2 {
  %4 = alloca %"class.std::allocator", align 1
  %5 = alloca %"class.std::allocator"*, align 8
  %6 = alloca %"class.std::_Compressed_pair"*, align 8
  %7 = getelementptr inbounds %"class.std::allocator", %"class.std::allocator"* %4, i32 0, i32 0
  store i8 %1, i8* %7, align 1
  store %"class.std::allocator"* %2, %"class.std::allocator"** %5, align 8
  store %"class.std::_Compressed_pair"* %0, %"class.std::_Compressed_pair"** %6, align 8
  %8 = load %"class.std::_Compressed_pair"*, %"class.std::_Compressed_pair"** %6, align 8
  %9 = bitcast %"class.std::_Compressed_pair"* %8 to %"class.std::allocator"*
  %10 = load %"class.std::allocator"*, %"class.std::allocator"** %5, align 8
  %11 = call dereferenceable(1) %"class.std::allocator"* @"\01??$forward@V?$allocator@D@std@@@std@@YA$$QEAV?$allocator@D@0@AEAV10@@Z"(%"class.std::allocator"* dereferenceable(1) %10) #9
  %12 = getelementptr inbounds %"class.std::_Compressed_pair", %"class.std::_Compressed_pair"* %8, i32 0, i32 0
  %13 = call %"class.std::_String_val"* @"\01??0?$_String_val@U?$_Simple_types@D@std@@@std@@QEAA@XZ"(%"class.std::_String_val"* %12)
  ret %"class.std::_Compressed_pair"* %8
}

; Function Attrs: noinline optnone uwtable
define linkonce_odr %"class.std::_String_val"* @"\01??0?$_String_val@U?$_Simple_types@D@std@@@std@@QEAA@XZ"(%"class.std::_String_val"* returned) unnamed_addr #0 comdat align 2 {
  %2 = alloca %"class.std::_String_val"*, align 8
  store %"class.std::_String_val"* %0, %"class.std::_String_val"** %2, align 8
  %3 = load %"class.std::_String_val"*, %"class.std::_String_val"** %2, align 8
  %4 = bitcast %"class.std::_String_val"* %3 to %"class.std::allocator"*
  %5 = getelementptr inbounds %"class.std::_String_val", %"class.std::_String_val"* %3, i32 0, i32 0
  %6 = call %"union.std::_String_val<std::_Simple_types<char> >::_Bxty"* @"\01??0_Bxty@?$_String_val@U?$_Simple_types@D@std@@@std@@QEAA@XZ"(%"union.std::_String_val<std::_Simple_types<char> >::_Bxty"* %5)
  %7 = getelementptr inbounds %"class.std::_String_val", %"class.std::_String_val"* %3, i32 0, i32 1
  store i64 0, i64* %7, align 8
  %8 = getelementptr inbounds %"class.std::_String_val", %"class.std::_String_val"* %3, i32 0, i32 2
  store i64 0, i64* %8, align 8
  ret %"class.std::_String_val"* %3
}

; Function Attrs: noinline nounwind optnone uwtable
define linkonce_odr %"union.std::_String_val<std::_Simple_types<char> >::_Bxty"* @"\01??0_Bxty@?$_String_val@U?$_Simple_types@D@std@@@std@@QEAA@XZ"(%"union.std::_String_val<std::_Simple_types<char> >::_Bxty"* returned) unnamed_addr #1 comdat align 2 {
  %2 = alloca %"union.std::_String_val<std::_Simple_types<char> >::_Bxty"*, align 8
  store %"union.std::_String_val<std::_Simple_types<char> >::_Bxty"* %0, %"union.std::_String_val<std::_Simple_types<char> >::_Bxty"** %2, align 8
  %3 = load %"union.std::_String_val<std::_Simple_types<char> >::_Bxty"*, %"union.std::_String_val<std::_Simple_types<char> >::_Bxty"** %2, align 8
  ret %"union.std::_String_val<std::_Simple_types<char> >::_Bxty"* %3
}

; Function Attrs: noinline nounwind optnone uwtable
define linkonce_odr dereferenceable(32) %"class.std::basic_string"* @"\01?get@?$ExplicitlyConstructed@V?$basic_string@DU?$char_traits@D@std@@V?$allocator@D@2@@std@@@internal@protobuf@google@@QEBAAEBV?$basic_string@DU?$char_traits@D@std@@V?$allocator@D@2@@std@@XZ"(%"class.google::protobuf::internal::ExplicitlyConstructed"*) #1 comdat align 2 {
  %2 = alloca %"class.google::protobuf::internal::ExplicitlyConstructed"*, align 8
  store %"class.google::protobuf::internal::ExplicitlyConstructed"* %0, %"class.google::protobuf::internal::ExplicitlyConstructed"** %2, align 8
  %3 = load %"class.google::protobuf::internal::ExplicitlyConstructed"*, %"class.google::protobuf::internal::ExplicitlyConstructed"** %2, align 8
  %4 = getelementptr inbounds %"class.google::protobuf::internal::ExplicitlyConstructed", %"class.google::protobuf::internal::ExplicitlyConstructed"* %3, i32 0, i32 0
  %5 = bitcast %"union.google::protobuf::internal::ExplicitlyConstructed<std::basic_string<char, std::char_traits<char>, std::allocator<char> > >::AlignedUnion"* %4 to %"class.std::basic_string"*
  ret %"class.std::basic_string"* %5
}

; Function Attrs: noinline nounwind optnone uwtable
define linkonce_odr i64 @"\01?size@?$basic_string@DU?$char_traits@D@std@@V?$allocator@D@2@@std@@QEBA_KXZ"(%"class.std::basic_string"*) #1 comdat align 2 {
  %2 = alloca %"class.std::basic_string"*, align 8
  store %"class.std::basic_string"* %0, %"class.std::basic_string"** %2, align 8
  %3 = load %"class.std::basic_string"*, %"class.std::basic_string"** %2, align 8
  %4 = bitcast %"class.std::basic_string"* %3 to %"class.std::_String_alloc"*
  %5 = call dereferenceable(32) %"class.std::_String_val"* @"\01?_Get_data@?$_String_alloc@U?$_String_base_types@DV?$allocator@D@std@@@std@@@std@@QEBAAEBV?$_String_val@U?$_Simple_types@D@std@@@2@XZ"(%"class.std::_String_alloc"* %4) #9
  %6 = getelementptr inbounds %"class.std::_String_val", %"class.std::_String_val"* %5, i32 0, i32 1
  %7 = load i64, i64* %6, align 8
  ret i64 %7
}

; Function Attrs: noinline nounwind optnone uwtable
define linkonce_odr i64 @"\01?capacity@?$basic_string@DU?$char_traits@D@std@@V?$allocator@D@2@@std@@QEBA_KXZ"(%"class.std::basic_string"*) #1 comdat align 2 {
  %2 = alloca %"class.std::basic_string"*, align 8
  store %"class.std::basic_string"* %0, %"class.std::basic_string"** %2, align 8
  %3 = load %"class.std::basic_string"*, %"class.std::basic_string"** %2, align 8
  %4 = bitcast %"class.std::basic_string"* %3 to %"class.std::_String_alloc"*
  %5 = call dereferenceable(32) %"class.std::_String_val"* @"\01?_Get_data@?$_String_alloc@U?$_String_base_types@DV?$allocator@D@std@@@std@@@std@@QEBAAEBV?$_String_val@U?$_Simple_types@D@std@@@2@XZ"(%"class.std::_String_alloc"* %4) #9
  %6 = getelementptr inbounds %"class.std::_String_val", %"class.std::_String_val"* %5, i32 0, i32 2
  %7 = load i64, i64* %6, align 8
  ret i64 %7
}

; Function Attrs: noinline optnone uwtable
define linkonce_odr dereferenceable(32) %"class.std::basic_string"* @"\01?append@?$basic_string@DU?$char_traits@D@std@@V?$allocator@D@2@@std@@QEAAAEAV12@AEBV12@@Z"(%"class.std::basic_string"*, %"class.std::basic_string"* dereferenceable(32)) #0 comdat align 2 {
  %3 = alloca %"class.std::basic_string"*, align 8
  %4 = alloca %"class.std::basic_string"*, align 8
  %5 = alloca %"class.std::_String_val"*, align 8
  store %"class.std::basic_string"* %1, %"class.std::basic_string"** %3, align 8
  store %"class.std::basic_string"* %0, %"class.std::basic_string"** %4, align 8
  %6 = load %"class.std::basic_string"*, %"class.std::basic_string"** %4, align 8
  %7 = load %"class.std::basic_string"*, %"class.std::basic_string"** %3, align 8
  %8 = bitcast %"class.std::basic_string"* %7 to %"class.std::_String_alloc"*
  %9 = call dereferenceable(32) %"class.std::_String_val"* @"\01?_Get_data@?$_String_alloc@U?$_String_base_types@DV?$allocator@D@std@@@std@@@std@@QEBAAEBV?$_String_val@U?$_Simple_types@D@std@@@2@XZ"(%"class.std::_String_alloc"* %8) #9
  store %"class.std::_String_val"* %9, %"class.std::_String_val"** %5, align 8
  %10 = load %"class.std::_String_val"*, %"class.std::_String_val"** %5, align 8
  %11 = getelementptr inbounds %"class.std::_String_val", %"class.std::_String_val"* %10, i32 0, i32 1
  %12 = load i64, i64* %11, align 8
  %13 = load %"class.std::_String_val"*, %"class.std::_String_val"** %5, align 8
  %14 = call i8* @"\01?_Myptr@?$_String_val@U?$_Simple_types@D@std@@@std@@QEBAPEBDXZ"(%"class.std::_String_val"* %13)
  %15 = call dereferenceable(32) %"class.std::basic_string"* @"\01?append@?$basic_string@DU?$char_traits@D@std@@V?$allocator@D@2@@std@@QEAAAEAV12@QEBD_K@Z"(%"class.std::basic_string"* %6, i8* %14, i64 %12)
  ret %"class.std::basic_string"* %15
}

; Function Attrs: noinline optnone uwtable
define linkonce_odr dereferenceable(32) %"class.std::basic_string"* @"\01?insert@?$basic_string@DU?$char_traits@D@std@@V?$allocator@D@2@@std@@QEAAAEAV12@_KAEBV12@@Z"(%"class.std::basic_string"*, i64, %"class.std::basic_string"* dereferenceable(32)) #0 comdat align 2 {
  %4 = alloca %"class.std::basic_string"*, align 8
  %5 = alloca i64, align 8
  %6 = alloca %"class.std::basic_string"*, align 8
  %7 = alloca %"class.std::_String_val"*, align 8
  store %"class.std::basic_string"* %2, %"class.std::basic_string"** %4, align 8
  store i64 %1, i64* %5, align 8
  store %"class.std::basic_string"* %0, %"class.std::basic_string"** %6, align 8
  %8 = load %"class.std::basic_string"*, %"class.std::basic_string"** %6, align 8
  %9 = load %"class.std::basic_string"*, %"class.std::basic_string"** %4, align 8
  %10 = bitcast %"class.std::basic_string"* %9 to %"class.std::_String_alloc"*
  %11 = call dereferenceable(32) %"class.std::_String_val"* @"\01?_Get_data@?$_String_alloc@U?$_String_base_types@DV?$allocator@D@std@@@std@@@std@@QEBAAEBV?$_String_val@U?$_Simple_types@D@std@@@2@XZ"(%"class.std::_String_alloc"* %10) #9
  store %"class.std::_String_val"* %11, %"class.std::_String_val"** %7, align 8
  %12 = load %"class.std::_String_val"*, %"class.std::_String_val"** %7, align 8
  %13 = getelementptr inbounds %"class.std::_String_val", %"class.std::_String_val"* %12, i32 0, i32 1
  %14 = load i64, i64* %13, align 8
  %15 = load %"class.std::_String_val"*, %"class.std::_String_val"** %7, align 8
  %16 = call i8* @"\01?_Myptr@?$_String_val@U?$_Simple_types@D@std@@@std@@QEBAPEBDXZ"(%"class.std::_String_val"* %15)
  %17 = load i64, i64* %5, align 8
  %18 = call dereferenceable(32) %"class.std::basic_string"* @"\01?insert@?$basic_string@DU?$char_traits@D@std@@V?$allocator@D@2@@std@@QEAAAEAV12@_KQEBD0@Z"(%"class.std::basic_string"* %8, i64 %17, i8* %16, i64 %14)
  ret %"class.std::basic_string"* %18
}

; Function Attrs: noinline nounwind optnone uwtable
define linkonce_odr dereferenceable(32) %"class.std::_String_val"* @"\01?_Get_data@?$_String_alloc@U?$_String_base_types@DV?$allocator@D@std@@@std@@@std@@QEBAAEBV?$_String_val@U?$_Simple_types@D@std@@@2@XZ"(%"class.std::_String_alloc"*) #1 comdat align 2 {
  %2 = alloca %"class.std::_String_alloc"*, align 8
  store %"class.std::_String_alloc"* %0, %"class.std::_String_alloc"** %2, align 8
  %3 = load %"class.std::_String_alloc"*, %"class.std::_String_alloc"** %2, align 8
  %4 = getelementptr inbounds %"class.std::_String_alloc", %"class.std::_String_alloc"* %3, i32 0, i32 0
  %5 = call dereferenceable(32) %"class.std::_String_val"* @"\01?_Get_second@?$_Compressed_pair@V?$allocator@D@std@@V?$_String_val@U?$_Simple_types@D@std@@@2@$00@std@@QEBAAEBV?$_String_val@U?$_Simple_types@D@std@@@2@XZ"(%"class.std::_Compressed_pair"* %4) #9
  ret %"class.std::_String_val"* %5
}

; Function Attrs: noinline nounwind optnone uwtable
define linkonce_odr i8* @"\01?_Myptr@?$_String_val@U?$_Simple_types@D@std@@@std@@QEBAPEBDXZ"(%"class.std::_String_val"*) #1 comdat align 2 {
  %2 = alloca %"class.std::_String_val"*, align 8
  %3 = alloca i8*, align 8
  store %"class.std::_String_val"* %0, %"class.std::_String_val"** %2, align 8
  %4 = load %"class.std::_String_val"*, %"class.std::_String_val"** %2, align 8
  %5 = getelementptr inbounds %"class.std::_String_val", %"class.std::_String_val"* %4, i32 0, i32 0
  %6 = bitcast %"union.std::_String_val<std::_Simple_types<char> >::_Bxty"* %5 to [16 x i8]*
  %7 = getelementptr inbounds [16 x i8], [16 x i8]* %6, i32 0, i32 0
  store i8* %7, i8** %3, align 8
  %8 = call zeroext i1 @"\01?_Large_string_engaged@?$_String_val@U?$_Simple_types@D@std@@@std@@QEBA_NXZ"(%"class.std::_String_val"* %4)
  br i1 %8, label %9, label %14

; <label>:9:                                      ; preds = %1
  %10 = getelementptr inbounds %"class.std::_String_val", %"class.std::_String_val"* %4, i32 0, i32 0
  %11 = bitcast %"union.std::_String_val<std::_Simple_types<char> >::_Bxty"* %10 to i8**
  %12 = load i8*, i8** %11, align 8
  %13 = call i8* @"\01??$_Unfancy@D@std@@YAPEADPEAD@Z"(i8* %12)
  store i8* %13, i8** %3, align 8
  br label %14

; <label>:14:                                     ; preds = %9, %1
  %15 = load i8*, i8** %3, align 8
  ret i8* %15
}

; Function Attrs: noinline optnone uwtable
define linkonce_odr dereferenceable(32) %"class.std::basic_string"* @"\01?insert@?$basic_string@DU?$char_traits@D@std@@V?$allocator@D@2@@std@@QEAAAEAV12@_KQEBD0@Z"(%"class.std::basic_string"*, i64, i8*, i64) #0 comdat align 2 {
  %5 = alloca %"class.std::basic_string"*, align 8
  %6 = alloca i64, align 8
  %7 = alloca i8*, align 8
  %8 = alloca i64, align 8
  %9 = alloca %"class.std::basic_string"*, align 8
  %10 = alloca %"class.std::_String_val"*, align 8
  %11 = alloca i64, align 8
  %12 = alloca i8*, align 8
  %13 = alloca i8*, align 8
  %14 = alloca i64, align 8
  %15 = alloca %"class.std::allocator", align 1
  store i64 %3, i64* %6, align 8
  store i8* %2, i8** %7, align 8
  store i64 %1, i64* %8, align 8
  store %"class.std::basic_string"* %0, %"class.std::basic_string"** %9, align 8
  %16 = load %"class.std::basic_string"*, %"class.std::basic_string"** %9, align 8
  %17 = bitcast %"class.std::basic_string"* %16 to %"class.std::_String_alloc"*
  %18 = call dereferenceable(32) %"class.std::_String_val"* @"\01?_Get_data@?$_String_alloc@U?$_String_base_types@DV?$allocator@D@std@@@std@@@std@@QEAAAEAV?$_String_val@U?$_Simple_types@D@std@@@2@XZ"(%"class.std::_String_alloc"* %17) #9
  store %"class.std::_String_val"* %18, %"class.std::_String_val"** %10, align 8
  %19 = load %"class.std::_String_val"*, %"class.std::_String_val"** %10, align 8
  %20 = load i64, i64* %8, align 8
  call void @"\01?_Check_offset@?$_String_val@U?$_Simple_types@D@std@@@std@@QEBAX_K@Z"(%"class.std::_String_val"* %19, i64 %20)
  %21 = load %"class.std::_String_val"*, %"class.std::_String_val"** %10, align 8
  %22 = getelementptr inbounds %"class.std::_String_val", %"class.std::_String_val"* %21, i32 0, i32 1
  %23 = load i64, i64* %22, align 8
  store i64 %23, i64* %11, align 8
  %24 = load i64, i64* %6, align 8
  %25 = load %"class.std::_String_val"*, %"class.std::_String_val"** %10, align 8
  %26 = getelementptr inbounds %"class.std::_String_val", %"class.std::_String_val"* %25, i32 0, i32 2
  %27 = load i64, i64* %26, align 8
  %28 = load i64, i64* %11, align 8
  %29 = sub i64 %27, %28
  %30 = icmp ule i64 %24, %29
  br i1 %30, label %31, label %93

; <label>:31:                                     ; preds = %4
  %32 = load i64, i64* %11, align 8
  %33 = load i64, i64* %6, align 8
  %34 = add i64 %32, %33
  %35 = load %"class.std::_String_val"*, %"class.std::_String_val"** %10, align 8
  %36 = getelementptr inbounds %"class.std::_String_val", %"class.std::_String_val"* %35, i32 0, i32 1
  store i64 %34, i64* %36, align 8
  %37 = load %"class.std::_String_val"*, %"class.std::_String_val"** %10, align 8
  %38 = call i8* @"\01?_Myptr@?$_String_val@U?$_Simple_types@D@std@@@std@@QEAAPEADXZ"(%"class.std::_String_val"* %37)
  store i8* %38, i8** %12, align 8
  %39 = load i8*, i8** %12, align 8
  %40 = load i64, i64* %8, align 8
  %41 = getelementptr inbounds i8, i8* %39, i64 %40
  store i8* %41, i8** %13, align 8
  %42 = load i8*, i8** %7, align 8
  %43 = load i64, i64* %6, align 8
  %44 = getelementptr inbounds i8, i8* %42, i64 %43
  %45 = load i8*, i8** %13, align 8
  %46 = icmp ule i8* %44, %45
  br i1 %46, label %53, label %47

; <label>:47:                                     ; preds = %31
  %48 = load i8*, i8** %7, align 8
  %49 = load i8*, i8** %12, align 8
  %50 = load i64, i64* %11, align 8
  %51 = getelementptr inbounds i8, i8* %49, i64 %50
  %52 = icmp ugt i8* %48, %51
  br i1 %52, label %53, label %55

; <label>:53:                                     ; preds = %47, %31
  %54 = load i64, i64* %6, align 8
  store i64 %54, i64* %14, align 8
  br label %67

; <label>:55:                                     ; preds = %47
  %56 = load i8*, i8** %13, align 8
  %57 = load i8*, i8** %7, align 8
  %58 = icmp ule i8* %56, %57
  br i1 %58, label %59, label %60

; <label>:59:                                     ; preds = %55
  store i64 0, i64* %14, align 8
  br label %66

; <label>:60:                                     ; preds = %55
  %61 = load i8*, i8** %13, align 8
  %62 = load i8*, i8** %7, align 8
  %63 = ptrtoint i8* %61 to i64
  %64 = ptrtoint i8* %62 to i64
  %65 = sub i64 %63, %64
  store i64 %65, i64* %14, align 8
  br label %66

; <label>:66:                                     ; preds = %60, %59
  br label %67

; <label>:67:                                     ; preds = %66, %53
  %68 = load i64, i64* %11, align 8
  %69 = load i64, i64* %8, align 8
  %70 = sub i64 %68, %69
  %71 = add i64 %70, 1
  %72 = load i8*, i8** %13, align 8
  %73 = load i8*, i8** %13, align 8
  %74 = load i64, i64* %6, align 8
  %75 = getelementptr inbounds i8, i8* %73, i64 %74
  %76 = call i8* @"\01?move@?$char_traits@D@std@@SAPEADQEADQEBD_K@Z"(i8* %75, i8* %72, i64 %71) #9
  %77 = load i64, i64* %14, align 8
  %78 = load i8*, i8** %7, align 8
  %79 = load i8*, i8** %13, align 8
  %80 = call i8* @"\01?copy@?$char_traits@D@std@@SAPEADQEADQEBD_K@Z"(i8* %79, i8* %78, i64 %77) #9
  %81 = load i64, i64* %6, align 8
  %82 = load i64, i64* %14, align 8
  %83 = sub i64 %81, %82
  %84 = load i8*, i8** %7, align 8
  %85 = load i64, i64* %6, align 8
  %86 = getelementptr inbounds i8, i8* %84, i64 %85
  %87 = load i64, i64* %14, align 8
  %88 = getelementptr inbounds i8, i8* %86, i64 %87
  %89 = load i8*, i8** %13, align 8
  %90 = load i64, i64* %14, align 8
  %91 = getelementptr inbounds i8, i8* %89, i64 %90
  %92 = call i8* @"\01?copy@?$char_traits@D@std@@SAPEADQEADQEBD_K@Z"(i8* %91, i8* %88, i64 %83) #9
  store %"class.std::basic_string"* %16, %"class.std::basic_string"** %5, align 8
  br label %101

; <label>:93:                                     ; preds = %4
  %94 = load i64, i64* %6, align 8
  %95 = load i8*, i8** %7, align 8
  %96 = load i64, i64* %8, align 8
  %97 = load i64, i64* %6, align 8
  %98 = getelementptr inbounds %"class.std::allocator", %"class.std::allocator"* %15, i32 0, i32 0
  %99 = load i8, i8* %98, align 1
  %100 = call dereferenceable(32) %"class.std::basic_string"* @"\01??$_Reallocate_grow_by@V<lambda_1>@?0??insert@?$basic_string@DU?$char_traits@D@std@@V?$allocator@D@2@@std@@QEAAAEAV34@_KQEBD0@Z@_KPEBD_K@?$basic_string@DU?$char_traits@D@std@@V?$allocator@D@2@@std@@QEAAAEAV01@_KV<lambda_1>@?0??insert@01@QEAAAEAV01@0QEBD0@Z@_KPEBD3@Z"(%"class.std::basic_string"* %16, i64 %97, i8 %99, i64 %96, i8* %95, i64 %94)
  store %"class.std::basic_string"* %100, %"class.std::basic_string"** %5, align 8
  br label %101

; <label>:101:                                    ; preds = %93, %67
  %102 = load %"class.std::basic_string"*, %"class.std::basic_string"** %5, align 8
  ret %"class.std::basic_string"* %102
}

; Function Attrs: noinline optnone uwtable
define linkonce_odr void @"\01?_Check_offset@?$_String_val@U?$_Simple_types@D@std@@@std@@QEBAX_K@Z"(%"class.std::_String_val"*, i64) #0 comdat align 2 {
  %3 = alloca i64, align 8
  %4 = alloca %"class.std::_String_val"*, align 8
  store i64 %1, i64* %3, align 8
  store %"class.std::_String_val"* %0, %"class.std::_String_val"** %4, align 8
  %5 = load %"class.std::_String_val"*, %"class.std::_String_val"** %4, align 8
  %6 = getelementptr inbounds %"class.std::_String_val", %"class.std::_String_val"* %5, i32 0, i32 1
  %7 = load i64, i64* %6, align 8
  %8 = load i64, i64* %3, align 8
  %9 = icmp ult i64 %7, %8
  br i1 %9, label %10, label %11

; <label>:10:                                     ; preds = %2
  call void @"\01?_Xran@?$_String_val@U?$_Simple_types@D@std@@@std@@SAXXZ"() #13
  unreachable

; <label>:11:                                     ; preds = %2
  ret void
}

; Function Attrs: noinline optnone uwtable
define linkonce_odr i8* @"\01?_Myptr@?$_String_val@U?$_Simple_types@D@std@@@std@@QEAAPEADXZ"(%"class.std::_String_val"*) #0 comdat align 2 {
  %2 = alloca %"class.std::_String_val"*, align 8
  %3 = alloca i8*, align 8
  store %"class.std::_String_val"* %0, %"class.std::_String_val"** %2, align 8
  %4 = load %"class.std::_String_val"*, %"class.std::_String_val"** %2, align 8
  %5 = getelementptr inbounds %"class.std::_String_val", %"class.std::_String_val"* %4, i32 0, i32 0
  %6 = bitcast %"union.std::_String_val<std::_Simple_types<char> >::_Bxty"* %5 to [16 x i8]*
  %7 = getelementptr inbounds [16 x i8], [16 x i8]* %6, i32 0, i32 0
  store i8* %7, i8** %3, align 8
  %8 = call zeroext i1 @"\01?_Large_string_engaged@?$_String_val@U?$_Simple_types@D@std@@@std@@QEBA_NXZ"(%"class.std::_String_val"* %4)
  br i1 %8, label %9, label %14

; <label>:9:                                      ; preds = %1
  %10 = getelementptr inbounds %"class.std::_String_val", %"class.std::_String_val"* %4, i32 0, i32 0
  %11 = bitcast %"union.std::_String_val<std::_Simple_types<char> >::_Bxty"* %10 to i8**
  %12 = load i8*, i8** %11, align 8
  %13 = call i8* @"\01??$_Unfancy@D@std@@YAPEADPEAD@Z"(i8* %12)
  store i8* %13, i8** %3, align 8
  br label %14

; <label>:14:                                     ; preds = %9, %1
  %15 = load i8*, i8** %3, align 8
  ret i8* %15
}

; Function Attrs: noinline nounwind optnone uwtable
define linkonce_odr i8* @"\01?move@?$char_traits@D@std@@SAPEADQEADQEBD_K@Z"(i8*, i8*, i64) #1 comdat align 2 {
  %4 = alloca i64, align 8
  %5 = alloca i8*, align 8
  %6 = alloca i8*, align 8
  store i64 %2, i64* %4, align 8
  store i8* %1, i8** %5, align 8
  store i8* %0, i8** %6, align 8
  %7 = load i8*, i8** %6, align 8
  %8 = load i8*, i8** %5, align 8
  %9 = load i64, i64* %4, align 8
  call void @llvm.memmove.p0i8.p0i8.i64(i8* %7, i8* %8, i64 %9, i32 1, i1 false)
  ret i8* %7
}

; Function Attrs: noinline nounwind optnone uwtable
define linkonce_odr i8* @"\01?copy@?$char_traits@D@std@@SAPEADQEADQEBD_K@Z"(i8*, i8*, i64) #1 comdat align 2 {
  %4 = alloca i64, align 8
  %5 = alloca i8*, align 8
  %6 = alloca i8*, align 8
  store i64 %2, i64* %4, align 8
  store i8* %1, i8** %5, align 8
  store i8* %0, i8** %6, align 8
  %7 = load i8*, i8** %6, align 8
  %8 = load i8*, i8** %5, align 8
  %9 = load i64, i64* %4, align 8
  call void @llvm.memcpy.p0i8.p0i8.i64(i8* %7, i8* %8, i64 %9, i32 1, i1 false)
  ret i8* %7
}

; Function Attrs: noinline optnone uwtable
define linkonce_odr dereferenceable(32) %"class.std::basic_string"* @"\01??$_Reallocate_grow_by@V<lambda_1>@?0??insert@?$basic_string@DU?$char_traits@D@std@@V?$allocator@D@2@@std@@QEAAAEAV34@_KQEBD0@Z@_KPEBD_K@?$basic_string@DU?$char_traits@D@std@@V?$allocator@D@2@@std@@QEAAAEAV01@_KV<lambda_1>@?0??insert@01@QEAAAEAV01@0QEBD0@Z@_KPEBD3@Z"(%"class.std::basic_string"*, i64, i8, i64, i8*, i64) #0 comdat align 2 {
  %7 = alloca %"class.std::allocator", align 1
  %8 = alloca i64, align 8
  %9 = alloca i8*, align 8
  %10 = alloca i64, align 8
  %11 = alloca i64, align 8
  %12 = alloca %"class.std::basic_string"*, align 8
  %13 = alloca %"class.std::_String_val"*, align 8
  %14 = alloca i64, align 8
  %15 = alloca i64, align 8
  %16 = alloca i64, align 8
  %17 = alloca i64, align 8
  %18 = alloca %"class.std::allocator"*, align 8
  %19 = alloca i8*, align 8
  %20 = alloca i8*, align 8
  %21 = alloca i8*, align 8
  %22 = getelementptr inbounds %"class.std::allocator", %"class.std::allocator"* %7, i32 0, i32 0
  store i8 %2, i8* %22, align 1
  store i64 %5, i64* %8, align 8
  store i8* %4, i8** %9, align 8
  store i64 %3, i64* %10, align 8
  store i64 %1, i64* %11, align 8
  store %"class.std::basic_string"* %0, %"class.std::basic_string"** %12, align 8
  %23 = load %"class.std::basic_string"*, %"class.std::basic_string"** %12, align 8
  %24 = bitcast %"class.std::basic_string"* %23 to %"class.std::_String_alloc"*
  %25 = call dereferenceable(32) %"class.std::_String_val"* @"\01?_Get_data@?$_String_alloc@U?$_String_base_types@DV?$allocator@D@std@@@std@@@std@@QEAAAEAV?$_String_val@U?$_Simple_types@D@std@@@2@XZ"(%"class.std::_String_alloc"* %24) #9
  store %"class.std::_String_val"* %25, %"class.std::_String_val"** %13, align 8
  %26 = load %"class.std::_String_val"*, %"class.std::_String_val"** %13, align 8
  %27 = getelementptr inbounds %"class.std::_String_val", %"class.std::_String_val"* %26, i32 0, i32 1
  %28 = load i64, i64* %27, align 8
  store i64 %28, i64* %14, align 8
  %29 = call i64 @"\01?max_size@?$basic_string@DU?$char_traits@D@std@@V?$allocator@D@2@@std@@QEBA_KXZ"(%"class.std::basic_string"* %23) #9
  %30 = load i64, i64* %14, align 8
  %31 = sub i64 %29, %30
  %32 = load i64, i64* %11, align 8
  %33 = icmp ult i64 %31, %32
  br i1 %33, label %34, label %35

; <label>:34:                                     ; preds = %6
  call void @"\01?_Xlen@?$basic_string@DU?$char_traits@D@std@@V?$allocator@D@2@@std@@SAXXZ"() #13
  unreachable

; <label>:35:                                     ; preds = %6
  %36 = load i64, i64* %14, align 8
  %37 = load i64, i64* %11, align 8
  %38 = add i64 %36, %37
  store i64 %38, i64* %15, align 8
  %39 = load %"class.std::_String_val"*, %"class.std::_String_val"** %13, align 8
  %40 = getelementptr inbounds %"class.std::_String_val", %"class.std::_String_val"* %39, i32 0, i32 2
  %41 = load i64, i64* %40, align 8
  store i64 %41, i64* %16, align 8
  %42 = load i64, i64* %15, align 8
  %43 = call i64 @"\01?_Calculate_growth@?$basic_string@DU?$char_traits@D@std@@V?$allocator@D@2@@std@@QEBA_K_K@Z"(%"class.std::basic_string"* %23, i64 %42)
  store i64 %43, i64* %17, align 8
  %44 = bitcast %"class.std::basic_string"* %23 to %"class.std::_String_alloc"*
  %45 = call dereferenceable(1) %"class.std::allocator"* @"\01?_Getal@?$_String_alloc@U?$_String_base_types@DV?$allocator@D@std@@@std@@@std@@QEAAAEAV?$allocator@D@2@XZ"(%"class.std::_String_alloc"* %44) #9
  store %"class.std::allocator"* %45, %"class.std::allocator"** %18, align 8
  %46 = load %"class.std::allocator"*, %"class.std::allocator"** %18, align 8
  %47 = load i64, i64* %17, align 8
  %48 = add i64 %47, 1
  %49 = call i8* @"\01?allocate@?$allocator@D@std@@QEAAPEAD_K@Z"(%"class.std::allocator"* %46, i64 %48)
  store i8* %49, i8** %19, align 8
  %50 = load %"class.std::_String_val"*, %"class.std::_String_val"** %13, align 8
  %51 = bitcast %"class.std::_String_val"* %50 to %"class.std::allocator"*
  call void @"\01?_Orphan_all@_Container_base0@std@@QEAAXXZ"(%"class.std::allocator"* %51) #9
  %52 = load i64, i64* %15, align 8
  %53 = load %"class.std::_String_val"*, %"class.std::_String_val"** %13, align 8
  %54 = getelementptr inbounds %"class.std::_String_val", %"class.std::_String_val"* %53, i32 0, i32 1
  store i64 %52, i64* %54, align 8
  %55 = load i64, i64* %17, align 8
  %56 = load %"class.std::_String_val"*, %"class.std::_String_val"** %13, align 8
  %57 = getelementptr inbounds %"class.std::_String_val", %"class.std::_String_val"* %56, i32 0, i32 2
  store i64 %55, i64* %57, align 8
  %58 = load i8*, i8** %19, align 8
  %59 = call i8* @"\01??$_Unfancy@D@std@@YAPEADPEAD@Z"(i8* %58)
  store i8* %59, i8** %20, align 8
  %60 = load i64, i64* %16, align 8
  %61 = icmp ule i64 16, %60
  br i1 %61, label %62, label %82

; <label>:62:                                     ; preds = %35
  %63 = load %"class.std::_String_val"*, %"class.std::_String_val"** %13, align 8
  %64 = getelementptr inbounds %"class.std::_String_val", %"class.std::_String_val"* %63, i32 0, i32 0
  %65 = bitcast %"union.std::_String_val<std::_Simple_types<char> >::_Bxty"* %64 to i8**
  %66 = load i8*, i8** %65, align 8
  store i8* %66, i8** %21, align 8
  %67 = load i64, i64* %8, align 8
  %68 = load i8*, i8** %9, align 8
  %69 = load i64, i64* %10, align 8
  %70 = load i64, i64* %14, align 8
  %71 = load i8*, i8** %21, align 8
  %72 = call i8* @"\01??$_Unfancy@D@std@@YAPEADPEAD@Z"(i8* %71)
  %73 = load i8*, i8** %20, align 8
  call void @"\01??R<lambda_1>@?0??insert@?$basic_string@DU?$char_traits@D@std@@V?$allocator@D@2@@std@@QEAAAEAV23@_KQEBD0@Z@QEBA?A?<auto>@@QEAD10010@Z"(%"class.std::allocator"* %7, i8* %73, i8* %72, i64 %70, i64 %69, i8* %68, i64 %67)
  %74 = load %"class.std::allocator"*, %"class.std::allocator"** %18, align 8
  %75 = load i64, i64* %16, align 8
  %76 = add i64 %75, 1
  %77 = load i8*, i8** %21, align 8
  call void @"\01?deallocate@?$allocator@D@std@@QEAAXQEAD_K@Z"(%"class.std::allocator"* %74, i8* %77, i64 %76)
  %78 = load i8*, i8** %19, align 8
  %79 = load %"class.std::_String_val"*, %"class.std::_String_val"** %13, align 8
  %80 = getelementptr inbounds %"class.std::_String_val", %"class.std::_String_val"* %79, i32 0, i32 0
  %81 = bitcast %"union.std::_String_val<std::_Simple_types<char> >::_Bxty"* %80 to i8**
  store i8* %78, i8** %81, align 8
  br label %97

; <label>:82:                                     ; preds = %35
  %83 = load i64, i64* %8, align 8
  %84 = load i8*, i8** %9, align 8
  %85 = load i64, i64* %10, align 8
  %86 = load i64, i64* %14, align 8
  %87 = load %"class.std::_String_val"*, %"class.std::_String_val"** %13, align 8
  %88 = getelementptr inbounds %"class.std::_String_val", %"class.std::_String_val"* %87, i32 0, i32 0
  %89 = bitcast %"union.std::_String_val<std::_Simple_types<char> >::_Bxty"* %88 to [16 x i8]*
  %90 = getelementptr inbounds [16 x i8], [16 x i8]* %89, i32 0, i32 0
  %91 = load i8*, i8** %20, align 8
  call void @"\01??R<lambda_1>@?0??insert@?$basic_string@DU?$char_traits@D@std@@V?$allocator@D@2@@std@@QEAAAEAV23@_KQEBD0@Z@QEBA?A?<auto>@@QEAD10010@Z"(%"class.std::allocator"* %7, i8* %91, i8* %90, i64 %86, i64 %85, i8* %84, i64 %83)
  %92 = load %"class.std::_String_val"*, %"class.std::_String_val"** %13, align 8
  %93 = getelementptr inbounds %"class.std::_String_val", %"class.std::_String_val"* %92, i32 0, i32 0
  %94 = bitcast %"union.std::_String_val<std::_Simple_types<char> >::_Bxty"* %93 to i8**
  %95 = call i8** @"\01??$addressof@PEAD@std@@YAPEAPEADAEAPEAD@Z"(i8** dereferenceable(8) %94) #9
  %96 = load %"class.std::allocator"*, %"class.std::allocator"** %18, align 8
  call void @"\01??$construct@PEADAEBQEAD@?$_Default_allocator_traits@V?$allocator@D@std@@@std@@SAXAEAV?$allocator@D@1@QEAPEADAEBQEAD@Z"(%"class.std::allocator"* dereferenceable(1) %96, i8** %95, i8** dereferenceable(8) %19)
  br label %97

; <label>:97:                                     ; preds = %82, %62
  ret %"class.std::basic_string"* %23
}

; Function Attrs: noinline nounwind optnone uwtable
define linkonce_odr i64 @"\01?max_size@?$basic_string@DU?$char_traits@D@std@@V?$allocator@D@2@@std@@QEBA_KXZ"(%"class.std::basic_string"*) #1 comdat align 2 {
  %2 = alloca %"class.std::basic_string"*, align 8
  %3 = alloca i64, align 8
  %4 = alloca i64, align 8
  %5 = alloca i64, align 8
  %6 = alloca i64, align 8
  %7 = alloca i64, align 8
  store %"class.std::basic_string"* %0, %"class.std::basic_string"** %2, align 8
  %8 = load %"class.std::basic_string"*, %"class.std::basic_string"** %2, align 8
  %9 = bitcast %"class.std::basic_string"* %8 to %"class.std::_String_alloc"*
  %10 = call dereferenceable(1) %"class.std::allocator"* @"\01?_Getal@?$_String_alloc@U?$_String_base_types@DV?$allocator@D@std@@@std@@@std@@QEBAAEBV?$allocator@D@2@XZ"(%"class.std::_String_alloc"* %9) #9
  %11 = call i64 @"\01?max_size@?$_Default_allocator_traits@V?$allocator@D@std@@@std@@SA_KAEBV?$allocator@D@2@@Z"(%"class.std::allocator"* dereferenceable(1) %10) #9
  store i64 %11, i64* %3, align 8
  store i64 16, i64* %5, align 8
  %12 = call dereferenceable(8) i64* @"\01??$_Max_value@_K@std@@YAAEB_KAEB_K0@Z"(i64* dereferenceable(8) %3, i64* dereferenceable(8) %5) #9
  %13 = load i64, i64* %12, align 8
  store i64 %13, i64* %4, align 8
  %14 = load i64, i64* %4, align 8
  %15 = sub i64 %14, 1
  store i64 %15, i64* %6, align 8
  %16 = call i64 @"\01?max@?$numeric_limits@_J@std@@SA_JXZ"() #9
  store i64 %16, i64* %7, align 8
  %17 = call dereferenceable(8) i64* @"\01??$_Min_value@_K@std@@YAAEB_KAEB_K0@Z"(i64* dereferenceable(8) %7, i64* dereferenceable(8) %6) #9
  %18 = load i64, i64* %17, align 8
  ret i64 %18
}

; Function Attrs: noinline noreturn optnone uwtable
define linkonce_odr void @"\01?_Xlen@?$basic_string@DU?$char_traits@D@std@@V?$allocator@D@2@@std@@SAXXZ"() #8 comdat align 2 {
  call void @"\01?_Xlength_error@std@@YAXPEBD@Z"(i8* getelementptr inbounds ([16 x i8], [16 x i8]* @"\01??_C@_0BA@JFNIOLAK@string?5too?5long?$AA@", i32 0, i32 0)) #13
  unreachable
                                                  ; No predecessors!
  ret void
}

; Function Attrs: noinline nounwind optnone uwtable
define linkonce_odr i64 @"\01?_Calculate_growth@?$basic_string@DU?$char_traits@D@std@@V?$allocator@D@2@@std@@QEBA_K_K@Z"(%"class.std::basic_string"*, i64) #1 comdat align 2 {
  %3 = alloca i64, align 8
  %4 = alloca i64, align 8
  %5 = alloca %"class.std::basic_string"*, align 8
  %6 = alloca i64, align 8
  %7 = alloca %"class.std::_String_val"*, align 8
  %8 = alloca i64, align 8
  %9 = alloca i64, align 8
  %10 = alloca i64, align 8
  store i64 %1, i64* %4, align 8
  store %"class.std::basic_string"* %0, %"class.std::basic_string"** %5, align 8
  %11 = load %"class.std::basic_string"*, %"class.std::basic_string"** %5, align 8
  %12 = call i64 @"\01?max_size@?$basic_string@DU?$char_traits@D@std@@V?$allocator@D@2@@std@@QEBA_KXZ"(%"class.std::basic_string"* %11) #9
  store i64 %12, i64* %6, align 8
  %13 = bitcast %"class.std::basic_string"* %11 to %"class.std::_String_alloc"*
  %14 = call dereferenceable(32) %"class.std::_String_val"* @"\01?_Get_data@?$_String_alloc@U?$_String_base_types@DV?$allocator@D@std@@@std@@@std@@QEBAAEBV?$_String_val@U?$_Simple_types@D@std@@@2@XZ"(%"class.std::_String_alloc"* %13) #9
  store %"class.std::_String_val"* %14, %"class.std::_String_val"** %7, align 8
  %15 = load i64, i64* %4, align 8
  %16 = or i64 %15, 15
  store i64 %16, i64* %8, align 8
  %17 = load i64, i64* %8, align 8
  %18 = load i64, i64* %6, align 8
  %19 = icmp ugt i64 %17, %18
  br i1 %19, label %20, label %22

; <label>:20:                                     ; preds = %2
  %21 = load i64, i64* %6, align 8
  store i64 %21, i64* %3, align 8
  br label %41

; <label>:22:                                     ; preds = %2
  %23 = load %"class.std::_String_val"*, %"class.std::_String_val"** %7, align 8
  %24 = getelementptr inbounds %"class.std::_String_val", %"class.std::_String_val"* %23, i32 0, i32 2
  %25 = load i64, i64* %24, align 8
  store i64 %25, i64* %9, align 8
  %26 = load i64, i64* %9, align 8
  %27 = load i64, i64* %6, align 8
  %28 = load i64, i64* %9, align 8
  %29 = udiv i64 %28, 2
  %30 = sub i64 %27, %29
  %31 = icmp ugt i64 %26, %30
  br i1 %31, label %32, label %34

; <label>:32:                                     ; preds = %22
  %33 = load i64, i64* %6, align 8
  store i64 %33, i64* %3, align 8
  br label %41

; <label>:34:                                     ; preds = %22
  %35 = load i64, i64* %9, align 8
  %36 = load i64, i64* %9, align 8
  %37 = udiv i64 %36, 2
  %38 = add i64 %35, %37
  store i64 %38, i64* %10, align 8
  %39 = call dereferenceable(8) i64* @"\01??$_Max_value@_K@std@@YAAEB_KAEB_K0@Z"(i64* dereferenceable(8) %8, i64* dereferenceable(8) %10) #9
  %40 = load i64, i64* %39, align 8
  store i64 %40, i64* %3, align 8
  br label %41

; <label>:41:                                     ; preds = %34, %32, %20
  %42 = load i64, i64* %3, align 8
  ret i64 %42
}

; Function Attrs: noinline optnone uwtable
define linkonce_odr i8* @"\01?allocate@?$allocator@D@std@@QEAAPEAD_K@Z"(%"class.std::allocator"*, i64) #0 comdat align 2 {
  %3 = alloca i64, align 8
  %4 = alloca %"class.std::allocator"*, align 8
  store i64 %1, i64* %3, align 8
  store %"class.std::allocator"* %0, %"class.std::allocator"** %4, align 8
  %5 = load %"class.std::allocator"*, %"class.std::allocator"** %4, align 8
  %6 = load i64, i64* %3, align 8
  %7 = call i64 @"\01??$_Get_size_of_n@$00@std@@YA_K_K@Z"(i64 %6)
  %8 = call i8* @"\01??$_Allocate@$0BA@U_Default_allocate_traits@std@@$0A@@std@@YAPEAX_K@Z"(i64 %7)
  ret i8* %8
}

; Function Attrs: noinline nounwind optnone uwtable
define linkonce_odr i8* @"\01??$_Unfancy@D@std@@YAPEADPEAD@Z"(i8*) #1 comdat {
  %2 = alloca i8*, align 8
  store i8* %0, i8** %2, align 8
  %3 = load i8*, i8** %2, align 8
  ret i8* %3
}

; Function Attrs: noinline nounwind optnone uwtable
define linkonce_odr void @"\01??R<lambda_1>@?0??insert@?$basic_string@DU?$char_traits@D@std@@V?$allocator@D@2@@std@@QEAAAEAV23@_KQEBD0@Z@QEBA?A?<auto>@@QEAD10010@Z"(%"class.std::allocator"*, i8*, i8*, i64, i64, i8*, i64) #1 comdat align 2 {
  %8 = alloca i64, align 8
  %9 = alloca i8*, align 8
  %10 = alloca i64, align 8
  %11 = alloca i64, align 8
  %12 = alloca i8*, align 8
  %13 = alloca i8*, align 8
  %14 = alloca %"class.std::allocator"*, align 8
  store i64 %6, i64* %8, align 8
  store i8* %5, i8** %9, align 8
  store i64 %4, i64* %10, align 8
  store i64 %3, i64* %11, align 8
  store i8* %2, i8** %12, align 8
  store i8* %1, i8** %13, align 8
  store %"class.std::allocator"* %0, %"class.std::allocator"** %14, align 8
  %15 = load %"class.std::allocator"*, %"class.std::allocator"** %14, align 8
  %16 = load i64, i64* %10, align 8
  %17 = load i8*, i8** %12, align 8
  %18 = load i8*, i8** %13, align 8
  %19 = call i8* @"\01?copy@?$char_traits@D@std@@SAPEADQEADQEBD_K@Z"(i8* %18, i8* %17, i64 %16) #9
  %20 = load i64, i64* %8, align 8
  %21 = load i8*, i8** %9, align 8
  %22 = load i8*, i8** %13, align 8
  %23 = load i64, i64* %10, align 8
  %24 = getelementptr inbounds i8, i8* %22, i64 %23
  %25 = call i8* @"\01?copy@?$char_traits@D@std@@SAPEADQEADQEBD_K@Z"(i8* %24, i8* %21, i64 %20) #9
  %26 = load i64, i64* %11, align 8
  %27 = load i64, i64* %10, align 8
  %28 = sub i64 %26, %27
  %29 = add i64 %28, 1
  %30 = load i8*, i8** %12, align 8
  %31 = load i64, i64* %10, align 8
  %32 = getelementptr inbounds i8, i8* %30, i64 %31
  %33 = load i8*, i8** %13, align 8
  %34 = load i64, i64* %10, align 8
  %35 = getelementptr inbounds i8, i8* %33, i64 %34
  %36 = load i64, i64* %8, align 8
  %37 = getelementptr inbounds i8, i8* %35, i64 %36
  %38 = call i8* @"\01?copy@?$char_traits@D@std@@SAPEADQEADQEBD_K@Z"(i8* %37, i8* %32, i64 %29) #9
  ret void
}

; Function Attrs: noinline nounwind optnone uwtable
define linkonce_odr void @"\01??$construct@PEADAEBQEAD@?$_Default_allocator_traits@V?$allocator@D@std@@@std@@SAXAEAV?$allocator@D@1@QEAPEADAEBQEAD@Z"(%"class.std::allocator"* dereferenceable(1), i8**, i8** dereferenceable(8)) #1 comdat align 2 {
  %4 = alloca i8**, align 8
  %5 = alloca i8**, align 8
  %6 = alloca %"class.std::allocator"*, align 8
  store i8** %2, i8*** %4, align 8
  store i8** %1, i8*** %5, align 8
  store %"class.std::allocator"* %0, %"class.std::allocator"** %6, align 8
  %7 = load i8**, i8*** %5, align 8
  %8 = bitcast i8** %7 to i8*
  %9 = bitcast i8* %8 to i8**
  %10 = load i8**, i8*** %4, align 8
  %11 = call dereferenceable(8) i8** @"\01??$forward@AEBQEAD@std@@YAAEBQEADAEBQEAD@Z"(i8** dereferenceable(8) %10) #9
  %12 = load i8*, i8** %11, align 8
  store i8* %12, i8** %9, align 8
  ret void
}

; Function Attrs: noinline nounwind optnone uwtable
define linkonce_odr dereferenceable(8) i8** @"\01??$forward@AEBQEAD@std@@YAAEBQEADAEBQEAD@Z"(i8** dereferenceable(8)) #1 comdat {
  %2 = alloca i8**, align 8
  store i8** %0, i8*** %2, align 8
  %3 = load i8**, i8*** %2, align 8
  ret i8** %3
}

; Function Attrs: noinline nounwind optnone uwtable
define linkonce_odr i64 @"\01??$_Get_size_of_n@$00@std@@YA_K_K@Z"(i64) #1 comdat {
  %2 = alloca i64, align 8
  store i64 %0, i64* %2, align 8
  %3 = load i64, i64* %2, align 8
  ret i64 %3
}

; Function Attrs: noinline optnone uwtable
define linkonce_odr i8* @"\01??$_Allocate@$0BA@U_Default_allocate_traits@std@@$0A@@std@@YAPEAX_K@Z"(i64) #0 comdat {
  %2 = alloca i8*, align 8
  %3 = alloca i64, align 8
  store i64 %0, i64* %3, align 8
  %4 = load i64, i64* %3, align 8
  %5 = icmp uge i64 %4, 4096
  br i1 %5, label %6, label %9

; <label>:6:                                      ; preds = %1
  %7 = load i64, i64* %3, align 8
  %8 = call i8* @"\01??$_Allocate_manually_vector_aligned@U_Default_allocate_traits@std@@@std@@YAPEAX_K@Z"(i64 %7)
  store i8* %8, i8** %2, align 8
  br label %16

; <label>:9:                                      ; preds = %1
  %10 = load i64, i64* %3, align 8
  %11 = icmp ne i64 %10, 0
  br i1 %11, label %12, label %15

; <label>:12:                                     ; preds = %9
  %13 = load i64, i64* %3, align 8
  %14 = call i8* @"\01?_Allocate@_Default_allocate_traits@std@@SAPEAX_K@Z"(i64 %13)
  store i8* %14, i8** %2, align 8
  br label %16

; <label>:15:                                     ; preds = %9
  store i8* null, i8** %2, align 8
  br label %16

; <label>:16:                                     ; preds = %15, %12, %6
  %17 = load i8*, i8** %2, align 8
  ret i8* %17
}

; Function Attrs: noinline optnone uwtable
define linkonce_odr i8* @"\01??$_Allocate_manually_vector_aligned@U_Default_allocate_traits@std@@@std@@YAPEAX_K@Z"(i64) #0 comdat {
  %2 = alloca i64, align 8
  %3 = alloca i64, align 8
  %4 = alloca i64, align 8
  %5 = alloca i8*, align 8
  store i64 %0, i64* %2, align 8
  %6 = load i64, i64* %2, align 8
  %7 = add i64 39, %6
  store i64 %7, i64* %3, align 8
  %8 = load i64, i64* %3, align 8
  %9 = load i64, i64* %2, align 8
  %10 = icmp ule i64 %8, %9
  br i1 %10, label %11, label %12

; <label>:11:                                     ; preds = %1
  store i64 -1, i64* %3, align 8
  br label %12

; <label>:12:                                     ; preds = %11, %1
  %13 = load i64, i64* %3, align 8
  %14 = call i8* @"\01?_Allocate@_Default_allocate_traits@std@@SAPEAX_K@Z"(i64 %13)
  %15 = ptrtoint i8* %14 to i64
  store i64 %15, i64* %4, align 8
  br label %16

; <label>:16:                                     ; preds = %12
  %17 = load i64, i64* %4, align 8
  %18 = icmp ne i64 %17, 0
  br i1 %18, label %19, label %20

; <label>:19:                                     ; preds = %16
  br label %23

; <label>:20:                                     ; preds = %16
  br label %21

; <label>:21:                                     ; preds = %20
  call void @_invalid_parameter_noinfo_noreturn() #13
  unreachable
                                                  ; No predecessors!
  br label %23

; <label>:23:                                     ; preds = %22, %19
  br label %24

; <label>:24:                                     ; preds = %23
  %25 = load i64, i64* %4, align 8
  %26 = add i64 %25, 39
  %27 = and i64 %26, -32
  %28 = inttoptr i64 %27 to i8*
  store i8* %28, i8** %5, align 8
  %29 = load i64, i64* %4, align 8
  %30 = load i8*, i8** %5, align 8
  %31 = bitcast i8* %30 to i64*
  %32 = getelementptr inbounds i64, i64* %31, i64 -1
  store i64 %29, i64* %32, align 8
  %33 = load i8*, i8** %5, align 8
  ret i8* %33
}

; Function Attrs: noinline optnone uwtable
define linkonce_odr i8* @"\01?_Allocate@_Default_allocate_traits@std@@SAPEAX_K@Z"(i64) #0 comdat align 2 {
  %2 = alloca i64, align 8
  store i64 %0, i64* %2, align 8
  %3 = load i64, i64* %2, align 8
  %4 = call i8* @"\01??2@YAPEAX_K@Z"(i64 %3)
  ret i8* %4
}

; Function Attrs: noinline nounwind optnone uwtable
define linkonce_odr dereferenceable(8) i64* @"\01??$_Max_value@_K@std@@YAAEB_KAEB_K0@Z"(i64* dereferenceable(8), i64* dereferenceable(8)) #1 comdat {
  %3 = alloca i64*, align 8
  %4 = alloca i64*, align 8
  store i64* %1, i64** %3, align 8
  store i64* %0, i64** %4, align 8
  %5 = load i64*, i64** %4, align 8
  %6 = load i64, i64* %5, align 8
  %7 = load i64*, i64** %3, align 8
  %8 = load i64, i64* %7, align 8
  %9 = icmp ult i64 %6, %8
  br i1 %9, label %10, label %12

; <label>:10:                                     ; preds = %2
  %11 = load i64*, i64** %3, align 8
  br label %14

; <label>:12:                                     ; preds = %2
  %13 = load i64*, i64** %4, align 8
  br label %14

; <label>:14:                                     ; preds = %12, %10
  %15 = phi i64* [ %11, %10 ], [ %13, %12 ]
  ret i64* %15
}

; Function Attrs: noreturn
declare void @"\01?_Xlength_error@std@@YAXPEBD@Z"(i8*) #6

; Function Attrs: noinline nounwind optnone uwtable
define linkonce_odr dereferenceable(1) %"class.std::allocator"* @"\01?_Getal@?$_String_alloc@U?$_String_base_types@DV?$allocator@D@std@@@std@@@std@@QEBAAEBV?$allocator@D@2@XZ"(%"class.std::_String_alloc"*) #1 comdat align 2 {
  %2 = alloca %"class.std::_String_alloc"*, align 8
  store %"class.std::_String_alloc"* %0, %"class.std::_String_alloc"** %2, align 8
  %3 = load %"class.std::_String_alloc"*, %"class.std::_String_alloc"** %2, align 8
  %4 = getelementptr inbounds %"class.std::_String_alloc", %"class.std::_String_alloc"* %3, i32 0, i32 0
  %5 = call dereferenceable(1) %"class.std::allocator"* @"\01?_Get_first@?$_Compressed_pair@V?$allocator@D@std@@V?$_String_val@U?$_Simple_types@D@std@@@2@$00@std@@QEBAAEBV?$allocator@D@2@XZ"(%"class.std::_Compressed_pair"* %4) #9
  ret %"class.std::allocator"* %5
}

; Function Attrs: noinline nounwind optnone uwtable
define linkonce_odr i64 @"\01?max_size@?$_Default_allocator_traits@V?$allocator@D@std@@@std@@SA_KAEBV?$allocator@D@2@@Z"(%"class.std::allocator"* dereferenceable(1)) #1 comdat align 2 {
  %2 = alloca %"class.std::allocator"*, align 8
  store %"class.std::allocator"* %0, %"class.std::allocator"** %2, align 8
  ret i64 -1
}

; Function Attrs: noinline nounwind optnone uwtable
define linkonce_odr i64 @"\01?max@?$numeric_limits@_J@std@@SA_JXZ"() #1 comdat align 2 {
  ret i64 9223372036854775807
}

; Function Attrs: noinline nounwind optnone uwtable
define linkonce_odr dereferenceable(8) i64* @"\01??$_Min_value@_K@std@@YAAEB_KAEB_K0@Z"(i64* dereferenceable(8), i64* dereferenceable(8)) #1 comdat {
  %3 = alloca i64*, align 8
  %4 = alloca i64*, align 8
  store i64* %1, i64** %3, align 8
  store i64* %0, i64** %4, align 8
  %5 = load i64*, i64** %3, align 8
  %6 = load i64, i64* %5, align 8
  %7 = load i64*, i64** %4, align 8
  %8 = load i64, i64* %7, align 8
  %9 = icmp ult i64 %6, %8
  br i1 %9, label %10, label %12

; <label>:10:                                     ; preds = %2
  %11 = load i64*, i64** %3, align 8
  br label %14

; <label>:12:                                     ; preds = %2
  %13 = load i64*, i64** %4, align 8
  br label %14

; <label>:14:                                     ; preds = %12, %10
  %15 = phi i64* [ %11, %10 ], [ %13, %12 ]
  ret i64* %15
}

; Function Attrs: noinline nounwind optnone uwtable
define linkonce_odr dereferenceable(1) %"class.std::allocator"* @"\01?_Get_first@?$_Compressed_pair@V?$allocator@D@std@@V?$_String_val@U?$_Simple_types@D@std@@@2@$00@std@@QEBAAEBV?$allocator@D@2@XZ"(%"class.std::_Compressed_pair"*) #1 comdat align 2 {
  %2 = alloca %"class.std::_Compressed_pair"*, align 8
  store %"class.std::_Compressed_pair"* %0, %"class.std::_Compressed_pair"** %2, align 8
  %3 = load %"class.std::_Compressed_pair"*, %"class.std::_Compressed_pair"** %2, align 8
  %4 = bitcast %"class.std::_Compressed_pair"* %3 to %"class.std::allocator"*
  ret %"class.std::allocator"* %4
}

; Function Attrs: argmemonly nounwind
declare void @llvm.memmove.p0i8.p0i8.i64(i8* nocapture, i8* nocapture readonly, i64, i32, i1) #7

; Function Attrs: noinline noreturn optnone uwtable
define linkonce_odr void @"\01?_Xran@?$_String_val@U?$_Simple_types@D@std@@@std@@SAXXZ"() #8 comdat align 2 {
  call void @"\01?_Xout_of_range@std@@YAXPEBD@Z"(i8* getelementptr inbounds ([24 x i8], [24 x i8]* @"\01??_C@_0BI@CFPLBAOH@invalid?5string?5position?$AA@", i32 0, i32 0)) #13
  unreachable
                                                  ; No predecessors!
  ret void
}

; Function Attrs: noreturn
declare void @"\01?_Xout_of_range@std@@YAXPEBD@Z"(i8*) #6

; Function Attrs: noinline nounwind optnone uwtable
define linkonce_odr dereferenceable(32) %"class.std::_String_val"* @"\01?_Get_second@?$_Compressed_pair@V?$allocator@D@std@@V?$_String_val@U?$_Simple_types@D@std@@@2@$00@std@@QEBAAEBV?$_String_val@U?$_Simple_types@D@std@@@2@XZ"(%"class.std::_Compressed_pair"*) #1 comdat align 2 {
  %2 = alloca %"class.std::_Compressed_pair"*, align 8
  store %"class.std::_Compressed_pair"* %0, %"class.std::_Compressed_pair"** %2, align 8
  %3 = load %"class.std::_Compressed_pair"*, %"class.std::_Compressed_pair"** %2, align 8
  %4 = getelementptr inbounds %"class.std::_Compressed_pair", %"class.std::_Compressed_pair"* %3, i32 0, i32 0
  ret %"class.std::_String_val"* %4
}

; Function Attrs: noinline optnone uwtable
define linkonce_odr dereferenceable(32) %"class.std::basic_string"* @"\01?append@?$basic_string@DU?$char_traits@D@std@@V?$allocator@D@2@@std@@QEAAAEAV12@QEBD_K@Z"(%"class.std::basic_string"*, i8*, i64) #0 comdat align 2 {
  %4 = alloca %"class.std::basic_string"*, align 8
  %5 = alloca i64, align 8
  %6 = alloca i8*, align 8
  %7 = alloca %"class.std::basic_string"*, align 8
  %8 = alloca %"class.std::_String_val"*, align 8
  %9 = alloca i64, align 8
  %10 = alloca i8*, align 8
  %11 = alloca i8, align 1
  %12 = alloca %"class.std::allocator", align 1
  store i64 %2, i64* %5, align 8
  store i8* %1, i8** %6, align 8
  store %"class.std::basic_string"* %0, %"class.std::basic_string"** %7, align 8
  %13 = load %"class.std::basic_string"*, %"class.std::basic_string"** %7, align 8
  %14 = bitcast %"class.std::basic_string"* %13 to %"class.std::_String_alloc"*
  %15 = call dereferenceable(32) %"class.std::_String_val"* @"\01?_Get_data@?$_String_alloc@U?$_String_base_types@DV?$allocator@D@std@@@std@@@std@@QEAAAEAV?$_String_val@U?$_Simple_types@D@std@@@2@XZ"(%"class.std::_String_alloc"* %14) #9
  store %"class.std::_String_val"* %15, %"class.std::_String_val"** %8, align 8
  %16 = load %"class.std::_String_val"*, %"class.std::_String_val"** %8, align 8
  %17 = getelementptr inbounds %"class.std::_String_val", %"class.std::_String_val"* %16, i32 0, i32 1
  %18 = load i64, i64* %17, align 8
  store i64 %18, i64* %9, align 8
  %19 = load i64, i64* %5, align 8
  %20 = load %"class.std::_String_val"*, %"class.std::_String_val"** %8, align 8
  %21 = getelementptr inbounds %"class.std::_String_val", %"class.std::_String_val"* %20, i32 0, i32 2
  %22 = load i64, i64* %21, align 8
  %23 = load i64, i64* %9, align 8
  %24 = sub i64 %22, %23
  %25 = icmp ule i64 %19, %24
  br i1 %25, label %26, label %45

; <label>:26:                                     ; preds = %3
  %27 = load i64, i64* %9, align 8
  %28 = load i64, i64* %5, align 8
  %29 = add i64 %27, %28
  %30 = load %"class.std::_String_val"*, %"class.std::_String_val"** %8, align 8
  %31 = getelementptr inbounds %"class.std::_String_val", %"class.std::_String_val"* %30, i32 0, i32 1
  store i64 %29, i64* %31, align 8
  %32 = load %"class.std::_String_val"*, %"class.std::_String_val"** %8, align 8
  %33 = call i8* @"\01?_Myptr@?$_String_val@U?$_Simple_types@D@std@@@std@@QEAAPEADXZ"(%"class.std::_String_val"* %32)
  store i8* %33, i8** %10, align 8
  %34 = load i64, i64* %5, align 8
  %35 = load i8*, i8** %6, align 8
  %36 = load i8*, i8** %10, align 8
  %37 = load i64, i64* %9, align 8
  %38 = getelementptr inbounds i8, i8* %36, i64 %37
  %39 = call i8* @"\01?move@?$char_traits@D@std@@SAPEADQEADQEBD_K@Z"(i8* %38, i8* %35, i64 %34) #9
  store i8 0, i8* %11, align 1
  %40 = load i8*, i8** %10, align 8
  %41 = load i64, i64* %9, align 8
  %42 = load i64, i64* %5, align 8
  %43 = add i64 %41, %42
  %44 = getelementptr inbounds i8, i8* %40, i64 %43
  call void @"\01?assign@?$char_traits@D@std@@SAXAEADAEBD@Z"(i8* dereferenceable(1) %44, i8* dereferenceable(1) %11) #9
  store %"class.std::basic_string"* %13, %"class.std::basic_string"** %4, align 8
  br label %52

; <label>:45:                                     ; preds = %3
  %46 = load i64, i64* %5, align 8
  %47 = load i8*, i8** %6, align 8
  %48 = load i64, i64* %5, align 8
  %49 = getelementptr inbounds %"class.std::allocator", %"class.std::allocator"* %12, i32 0, i32 0
  %50 = load i8, i8* %49, align 1
  %51 = call dereferenceable(32) %"class.std::basic_string"* @"\01??$_Reallocate_grow_by@V<lambda_1>@?0??append@?$basic_string@DU?$char_traits@D@std@@V?$allocator@D@2@@std@@QEAAAEAV34@QEBD_K@Z@PEBD_K@?$basic_string@DU?$char_traits@D@std@@V?$allocator@D@2@@std@@QEAAAEAV01@_KV<lambda_1>@?0??append@01@QEAAAEAV01@QEBD0@Z@PEBD_K@Z"(%"class.std::basic_string"* %13, i64 %48, i8 %50, i8* %47, i64 %46)
  store %"class.std::basic_string"* %51, %"class.std::basic_string"** %4, align 8
  br label %52

; <label>:52:                                     ; preds = %45, %26
  %53 = load %"class.std::basic_string"*, %"class.std::basic_string"** %4, align 8
  ret %"class.std::basic_string"* %53
}

; Function Attrs: noinline optnone uwtable
define linkonce_odr dereferenceable(32) %"class.std::basic_string"* @"\01??$_Reallocate_grow_by@V<lambda_1>@?0??append@?$basic_string@DU?$char_traits@D@std@@V?$allocator@D@2@@std@@QEAAAEAV34@QEBD_K@Z@PEBD_K@?$basic_string@DU?$char_traits@D@std@@V?$allocator@D@2@@std@@QEAAAEAV01@_KV<lambda_1>@?0??append@01@QEAAAEAV01@QEBD0@Z@PEBD_K@Z"(%"class.std::basic_string"*, i64, i8, i8*, i64) #0 comdat align 2 {
  %6 = alloca %"class.std::allocator", align 1
  %7 = alloca i64, align 8
  %8 = alloca i8*, align 8
  %9 = alloca i64, align 8
  %10 = alloca %"class.std::basic_string"*, align 8
  %11 = alloca %"class.std::_String_val"*, align 8
  %12 = alloca i64, align 8
  %13 = alloca i64, align 8
  %14 = alloca i64, align 8
  %15 = alloca i64, align 8
  %16 = alloca %"class.std::allocator"*, align 8
  %17 = alloca i8*, align 8
  %18 = alloca i8*, align 8
  %19 = alloca i8*, align 8
  %20 = getelementptr inbounds %"class.std::allocator", %"class.std::allocator"* %6, i32 0, i32 0
  store i8 %2, i8* %20, align 1
  store i64 %4, i64* %7, align 8
  store i8* %3, i8** %8, align 8
  store i64 %1, i64* %9, align 8
  store %"class.std::basic_string"* %0, %"class.std::basic_string"** %10, align 8
  %21 = load %"class.std::basic_string"*, %"class.std::basic_string"** %10, align 8
  %22 = bitcast %"class.std::basic_string"* %21 to %"class.std::_String_alloc"*
  %23 = call dereferenceable(32) %"class.std::_String_val"* @"\01?_Get_data@?$_String_alloc@U?$_String_base_types@DV?$allocator@D@std@@@std@@@std@@QEAAAEAV?$_String_val@U?$_Simple_types@D@std@@@2@XZ"(%"class.std::_String_alloc"* %22) #9
  store %"class.std::_String_val"* %23, %"class.std::_String_val"** %11, align 8
  %24 = load %"class.std::_String_val"*, %"class.std::_String_val"** %11, align 8
  %25 = getelementptr inbounds %"class.std::_String_val", %"class.std::_String_val"* %24, i32 0, i32 1
  %26 = load i64, i64* %25, align 8
  store i64 %26, i64* %12, align 8
  %27 = call i64 @"\01?max_size@?$basic_string@DU?$char_traits@D@std@@V?$allocator@D@2@@std@@QEBA_KXZ"(%"class.std::basic_string"* %21) #9
  %28 = load i64, i64* %12, align 8
  %29 = sub i64 %27, %28
  %30 = load i64, i64* %9, align 8
  %31 = icmp ult i64 %29, %30
  br i1 %31, label %32, label %33

; <label>:32:                                     ; preds = %5
  call void @"\01?_Xlen@?$basic_string@DU?$char_traits@D@std@@V?$allocator@D@2@@std@@SAXXZ"() #13
  unreachable

; <label>:33:                                     ; preds = %5
  %34 = load i64, i64* %12, align 8
  %35 = load i64, i64* %9, align 8
  %36 = add i64 %34, %35
  store i64 %36, i64* %13, align 8
  %37 = load %"class.std::_String_val"*, %"class.std::_String_val"** %11, align 8
  %38 = getelementptr inbounds %"class.std::_String_val", %"class.std::_String_val"* %37, i32 0, i32 2
  %39 = load i64, i64* %38, align 8
  store i64 %39, i64* %14, align 8
  %40 = load i64, i64* %13, align 8
  %41 = call i64 @"\01?_Calculate_growth@?$basic_string@DU?$char_traits@D@std@@V?$allocator@D@2@@std@@QEBA_K_K@Z"(%"class.std::basic_string"* %21, i64 %40)
  store i64 %41, i64* %15, align 8
  %42 = bitcast %"class.std::basic_string"* %21 to %"class.std::_String_alloc"*
  %43 = call dereferenceable(1) %"class.std::allocator"* @"\01?_Getal@?$_String_alloc@U?$_String_base_types@DV?$allocator@D@std@@@std@@@std@@QEAAAEAV?$allocator@D@2@XZ"(%"class.std::_String_alloc"* %42) #9
  store %"class.std::allocator"* %43, %"class.std::allocator"** %16, align 8
  %44 = load %"class.std::allocator"*, %"class.std::allocator"** %16, align 8
  %45 = load i64, i64* %15, align 8
  %46 = add i64 %45, 1
  %47 = call i8* @"\01?allocate@?$allocator@D@std@@QEAAPEAD_K@Z"(%"class.std::allocator"* %44, i64 %46)
  store i8* %47, i8** %17, align 8
  %48 = load %"class.std::_String_val"*, %"class.std::_String_val"** %11, align 8
  %49 = bitcast %"class.std::_String_val"* %48 to %"class.std::allocator"*
  call void @"\01?_Orphan_all@_Container_base0@std@@QEAAXXZ"(%"class.std::allocator"* %49) #9
  %50 = load i64, i64* %13, align 8
  %51 = load %"class.std::_String_val"*, %"class.std::_String_val"** %11, align 8
  %52 = getelementptr inbounds %"class.std::_String_val", %"class.std::_String_val"* %51, i32 0, i32 1
  store i64 %50, i64* %52, align 8
  %53 = load i64, i64* %15, align 8
  %54 = load %"class.std::_String_val"*, %"class.std::_String_val"** %11, align 8
  %55 = getelementptr inbounds %"class.std::_String_val", %"class.std::_String_val"* %54, i32 0, i32 2
  store i64 %53, i64* %55, align 8
  %56 = load i8*, i8** %17, align 8
  %57 = call i8* @"\01??$_Unfancy@D@std@@YAPEADPEAD@Z"(i8* %56)
  store i8* %57, i8** %18, align 8
  %58 = load i64, i64* %14, align 8
  %59 = icmp ule i64 16, %58
  br i1 %59, label %60, label %79

; <label>:60:                                     ; preds = %33
  %61 = load %"class.std::_String_val"*, %"class.std::_String_val"** %11, align 8
  %62 = getelementptr inbounds %"class.std::_String_val", %"class.std::_String_val"* %61, i32 0, i32 0
  %63 = bitcast %"union.std::_String_val<std::_Simple_types<char> >::_Bxty"* %62 to i8**
  %64 = load i8*, i8** %63, align 8
  store i8* %64, i8** %19, align 8
  %65 = load i64, i64* %7, align 8
  %66 = load i8*, i8** %8, align 8
  %67 = load i64, i64* %12, align 8
  %68 = load i8*, i8** %19, align 8
  %69 = call i8* @"\01??$_Unfancy@D@std@@YAPEADPEAD@Z"(i8* %68)
  %70 = load i8*, i8** %18, align 8
  call void @"\01??R<lambda_1>@?0??append@?$basic_string@DU?$char_traits@D@std@@V?$allocator@D@2@@std@@QEAAAEAV23@QEBD_K@Z@QEBA?A?<auto>@@QEAD0101@Z"(%"class.std::allocator"* %6, i8* %70, i8* %69, i64 %67, i8* %66, i64 %65)
  %71 = load %"class.std::allocator"*, %"class.std::allocator"** %16, align 8
  %72 = load i64, i64* %14, align 8
  %73 = add i64 %72, 1
  %74 = load i8*, i8** %19, align 8
  call void @"\01?deallocate@?$allocator@D@std@@QEAAXQEAD_K@Z"(%"class.std::allocator"* %71, i8* %74, i64 %73)
  %75 = load i8*, i8** %17, align 8
  %76 = load %"class.std::_String_val"*, %"class.std::_String_val"** %11, align 8
  %77 = getelementptr inbounds %"class.std::_String_val", %"class.std::_String_val"* %76, i32 0, i32 0
  %78 = bitcast %"union.std::_String_val<std::_Simple_types<char> >::_Bxty"* %77 to i8**
  store i8* %75, i8** %78, align 8
  br label %93

; <label>:79:                                     ; preds = %33
  %80 = load i64, i64* %7, align 8
  %81 = load i8*, i8** %8, align 8
  %82 = load i64, i64* %12, align 8
  %83 = load %"class.std::_String_val"*, %"class.std::_String_val"** %11, align 8
  %84 = getelementptr inbounds %"class.std::_String_val", %"class.std::_String_val"* %83, i32 0, i32 0
  %85 = bitcast %"union.std::_String_val<std::_Simple_types<char> >::_Bxty"* %84 to [16 x i8]*
  %86 = getelementptr inbounds [16 x i8], [16 x i8]* %85, i32 0, i32 0
  %87 = load i8*, i8** %18, align 8
  call void @"\01??R<lambda_1>@?0??append@?$basic_string@DU?$char_traits@D@std@@V?$allocator@D@2@@std@@QEAAAEAV23@QEBD_K@Z@QEBA?A?<auto>@@QEAD0101@Z"(%"class.std::allocator"* %6, i8* %87, i8* %86, i64 %82, i8* %81, i64 %80)
  %88 = load %"class.std::_String_val"*, %"class.std::_String_val"** %11, align 8
  %89 = getelementptr inbounds %"class.std::_String_val", %"class.std::_String_val"* %88, i32 0, i32 0
  %90 = bitcast %"union.std::_String_val<std::_Simple_types<char> >::_Bxty"* %89 to i8**
  %91 = call i8** @"\01??$addressof@PEAD@std@@YAPEAPEADAEAPEAD@Z"(i8** dereferenceable(8) %90) #9
  %92 = load %"class.std::allocator"*, %"class.std::allocator"** %16, align 8
  call void @"\01??$construct@PEADAEBQEAD@?$_Default_allocator_traits@V?$allocator@D@std@@@std@@SAXAEAV?$allocator@D@1@QEAPEADAEBQEAD@Z"(%"class.std::allocator"* dereferenceable(1) %92, i8** %91, i8** dereferenceable(8) %17)
  br label %93

; <label>:93:                                     ; preds = %79, %60
  ret %"class.std::basic_string"* %21
}

; Function Attrs: noinline nounwind optnone uwtable
define linkonce_odr void @"\01??R<lambda_1>@?0??append@?$basic_string@DU?$char_traits@D@std@@V?$allocator@D@2@@std@@QEAAAEAV23@QEBD_K@Z@QEBA?A?<auto>@@QEAD0101@Z"(%"class.std::allocator"*, i8*, i8*, i64, i8*, i64) #1 comdat align 2 {
  %7 = alloca i64, align 8
  %8 = alloca i8*, align 8
  %9 = alloca i64, align 8
  %10 = alloca i8*, align 8
  %11 = alloca i8*, align 8
  %12 = alloca %"class.std::allocator"*, align 8
  %13 = alloca i8, align 1
  store i64 %5, i64* %7, align 8
  store i8* %4, i8** %8, align 8
  store i64 %3, i64* %9, align 8
  store i8* %2, i8** %10, align 8
  store i8* %1, i8** %11, align 8
  store %"class.std::allocator"* %0, %"class.std::allocator"** %12, align 8
  %14 = load %"class.std::allocator"*, %"class.std::allocator"** %12, align 8
  %15 = load i64, i64* %9, align 8
  %16 = load i8*, i8** %10, align 8
  %17 = load i8*, i8** %11, align 8
  %18 = call i8* @"\01?copy@?$char_traits@D@std@@SAPEADQEADQEBD_K@Z"(i8* %17, i8* %16, i64 %15) #9
  %19 = load i64, i64* %7, align 8
  %20 = load i8*, i8** %8, align 8
  %21 = load i8*, i8** %11, align 8
  %22 = load i64, i64* %9, align 8
  %23 = getelementptr inbounds i8, i8* %21, i64 %22
  %24 = call i8* @"\01?copy@?$char_traits@D@std@@SAPEADQEADQEBD_K@Z"(i8* %23, i8* %20, i64 %19) #9
  store i8 0, i8* %13, align 1
  %25 = load i8*, i8** %11, align 8
  %26 = load i64, i64* %9, align 8
  %27 = load i64, i64* %7, align 8
  %28 = add i64 %26, %27
  %29 = getelementptr inbounds i8, i8* %25, i64 %28
  call void @"\01?assign@?$char_traits@D@std@@SAXAEADAEBD@Z"(i8* dereferenceable(1) %29, i8* dereferenceable(1) %13) #9
  ret void
}

; Function Attrs: noinline optnone uwtable
define linkonce_odr dereferenceable(32) %"class.std::basic_string"* @"\01?append@?$basic_string@DU?$char_traits@D@std@@V?$allocator@D@2@@std@@QEAAAEAV12@QEBD@Z"(%"class.std::basic_string"*, i8*) #0 comdat align 2 {
  %3 = alloca i8*, align 8
  %4 = alloca %"class.std::basic_string"*, align 8
  store i8* %1, i8** %3, align 8
  store %"class.std::basic_string"* %0, %"class.std::basic_string"** %4, align 8
  %5 = load %"class.std::basic_string"*, %"class.std::basic_string"** %4, align 8
  %6 = load i8*, i8** %3, align 8
  %7 = call i64 @"\01?length@?$char_traits@D@std@@SA_KQEBD@Z"(i8* %6) #9
  %8 = call i64 @"\01??$_Convert_size@_K@std@@YA_K_K@Z"(i64 %7)
  %9 = load i8*, i8** %3, align 8
  %10 = call dereferenceable(32) %"class.std::basic_string"* @"\01?append@?$basic_string@DU?$char_traits@D@std@@V?$allocator@D@2@@std@@QEAAAEAV12@QEBD_K@Z"(%"class.std::basic_string"* %5, i8* %9, i64 %8)
  ret %"class.std::basic_string"* %10
}

; Function Attrs: noinline nounwind optnone uwtable
define linkonce_odr i64 @"\01?length@?$char_traits@D@std@@SA_KQEBD@Z"(i8*) #1 comdat align 2 personality i8* bitcast (i32 (...)* @__CxxFrameHandler3 to i8*) {
  %2 = alloca i8*, align 8
  store i8* %0, i8** %2, align 8
  %3 = load i8*, i8** %2, align 8
  %4 = invoke i64 @strlen(i8* %3)
          to label %5 unwind label %6

; <label>:5:                                      ; preds = %1
  ret i64 %4

; <label>:6:                                      ; preds = %1
  %7 = cleanuppad within none []
  call void @__std_terminate() #10 [ "funclet"(token %7) ]
  unreachable
}

; Function Attrs: noinline nounwind optnone uwtable
define linkonce_odr i64 @"\01??$_Convert_size@_K@std@@YA_K_K@Z"(i64) #1 comdat {
  %2 = alloca i64, align 8
  store i64 %0, i64* %2, align 8
  %3 = load i64, i64* %2, align 8
  ret i64 %3
}

declare i64 @strlen(i8*) #2

; Function Attrs: noinline optnone uwtable
define linkonce_odr dereferenceable(32) %"class.std::basic_string"* @"\01?insert@?$basic_string@DU?$char_traits@D@std@@V?$allocator@D@2@@std@@QEAAAEAV12@_KQEBD@Z"(%"class.std::basic_string"*, i64, i8*) #0 comdat align 2 {
  %4 = alloca i8*, align 8
  %5 = alloca i64, align 8
  %6 = alloca %"class.std::basic_string"*, align 8
  store i8* %2, i8** %4, align 8
  store i64 %1, i64* %5, align 8
  store %"class.std::basic_string"* %0, %"class.std::basic_string"** %6, align 8
  %7 = load %"class.std::basic_string"*, %"class.std::basic_string"** %6, align 8
  %8 = load i8*, i8** %4, align 8
  %9 = call i64 @"\01?length@?$char_traits@D@std@@SA_KQEBD@Z"(i8* %8) #9
  %10 = call i64 @"\01??$_Convert_size@_K@std@@YA_K_K@Z"(i64 %9)
  %11 = load i8*, i8** %4, align 8
  %12 = load i64, i64* %5, align 8
  %13 = call dereferenceable(32) %"class.std::basic_string"* @"\01?insert@?$basic_string@DU?$char_traits@D@std@@V?$allocator@D@2@@std@@QEAAAEAV12@_KQEBD0@Z"(%"class.std::basic_string"* %7, i64 %12, i8* %11, i64 %10)
  ret %"class.std::basic_string"* %13
}

; Function Attrs: noinline optnone uwtable
define linkonce_odr void @"\01??$_Integral_to_string@DH@std@@YA?AV?$basic_string@DU?$char_traits@D@std@@V?$allocator@D@2@@0@H@Z"(%"class.std::basic_string"* noalias sret, i32) #0 comdat {
  %3 = alloca i32, align 4
  %4 = alloca [21 x i8], align 16
  %5 = alloca i8*, align 8
  %6 = alloca i8*, align 8
  %7 = alloca i32, align 4
  %8 = alloca %"class.std::allocator", align 1
  store i32 %1, i32* %3, align 4
  %9 = call i8* @"\01??$end@D$0BF@@std@@YAPEADAEAY0BF@D@Z"([21 x i8]* dereferenceable(21) %4) #9
  store i8* %9, i8** %5, align 8
  %10 = load i8*, i8** %5, align 8
  store i8* %10, i8** %6, align 8
  %11 = load i32, i32* %3, align 4
  store i32 %11, i32* %7, align 4
  %12 = load i32, i32* %3, align 4
  %13 = icmp slt i32 %12, 0
  br i1 %13, label %14, label %21

; <label>:14:                                     ; preds = %2
  %15 = load i32, i32* %7, align 4
  %16 = sub i32 0, %15
  %17 = load i8*, i8** %6, align 8
  %18 = call i8* @"\01??$_UIntegral_to_buff@DI@std@@YAPEADPEADI@Z"(i8* %17, i32 %16)
  store i8* %18, i8** %6, align 8
  %19 = load i8*, i8** %6, align 8
  %20 = getelementptr inbounds i8, i8* %19, i32 -1
  store i8* %20, i8** %6, align 8
  store i8 45, i8* %20, align 1
  br label %25

; <label>:21:                                     ; preds = %2
  %22 = load i32, i32* %7, align 4
  %23 = load i8*, i8** %6, align 8
  %24 = call i8* @"\01??$_UIntegral_to_buff@DI@std@@YAPEADPEADI@Z"(i8* %23, i32 %22)
  store i8* %24, i8** %6, align 8
  br label %25

; <label>:25:                                     ; preds = %21, %14
  %26 = call %"class.std::allocator"* @"\01??0?$allocator@D@std@@QEAA@XZ"(%"class.std::allocator"* %8) #9
  %27 = load i8*, i8** %5, align 8
  %28 = load i8*, i8** %6, align 8
  %29 = call %"class.std::basic_string"* @"\01??$?0PEADX@?$basic_string@DU?$char_traits@D@std@@V?$allocator@D@2@@std@@QEAA@PEAD0AEBV?$allocator@D@1@@Z"(%"class.std::basic_string"* %0, i8* %28, i8* %27, %"class.std::allocator"* dereferenceable(1) %8)
  ret void
}

; Function Attrs: noinline nounwind optnone uwtable
define linkonce_odr i8* @"\01??$end@D$0BF@@std@@YAPEADAEAY0BF@D@Z"([21 x i8]* dereferenceable(21)) #1 comdat {
  %2 = alloca [21 x i8]*, align 8
  store [21 x i8]* %0, [21 x i8]** %2, align 8
  %3 = load [21 x i8]*, [21 x i8]** %2, align 8
  %4 = getelementptr inbounds [21 x i8], [21 x i8]* %3, i32 0, i32 0
  %5 = getelementptr inbounds i8, i8* %4, i64 21
  ret i8* %5
}

; Function Attrs: noinline nounwind optnone uwtable
define linkonce_odr i8* @"\01??$_UIntegral_to_buff@DI@std@@YAPEADPEADI@Z"(i8*, i32) #1 comdat {
  %3 = alloca i32, align 4
  %4 = alloca i8*, align 8
  %5 = alloca i32, align 4
  store i32 %1, i32* %3, align 4
  store i8* %0, i8** %4, align 8
  %6 = load i32, i32* %3, align 4
  store i32 %6, i32* %5, align 4
  br label %7

; <label>:7:                                      ; preds = %16, %2
  %8 = load i32, i32* %5, align 4
  %9 = urem i32 %8, 10
  %10 = add i32 48, %9
  %11 = trunc i32 %10 to i8
  %12 = load i8*, i8** %4, align 8
  %13 = getelementptr inbounds i8, i8* %12, i32 -1
  store i8* %13, i8** %4, align 8
  store i8 %11, i8* %13, align 1
  %14 = load i32, i32* %5, align 4
  %15 = udiv i32 %14, 10
  store i32 %15, i32* %5, align 4
  br label %16

; <label>:16:                                     ; preds = %7
  %17 = load i32, i32* %5, align 4
  %18 = icmp ne i32 %17, 0
  br i1 %18, label %7, label %19

; <label>:19:                                     ; preds = %16
  %20 = load i8*, i8** %4, align 8
  ret i8* %20
}

; Function Attrs: noinline nounwind optnone uwtable
define linkonce_odr %"class.std::allocator"* @"\01??0?$allocator@D@std@@QEAA@XZ"(%"class.std::allocator"* returned) unnamed_addr #1 comdat align 2 {
  %2 = alloca %"class.std::allocator"*, align 8
  store %"class.std::allocator"* %0, %"class.std::allocator"** %2, align 8
  %3 = load %"class.std::allocator"*, %"class.std::allocator"** %2, align 8
  ret %"class.std::allocator"* %3
}

; Function Attrs: noinline optnone uwtable
define linkonce_odr %"class.std::basic_string"* @"\01??$?0PEADX@?$basic_string@DU?$char_traits@D@std@@V?$allocator@D@2@@std@@QEAA@PEAD0AEBV?$allocator@D@1@@Z"(%"class.std::basic_string"* returned, i8*, i8*, %"class.std::allocator"* dereferenceable(1)) unnamed_addr #0 comdat align 2 personality i8* bitcast (i32 (...)* @__CxxFrameHandler3 to i8*) {
  %5 = alloca %"class.std::allocator"*, align 8
  %6 = alloca i8*, align 8
  %7 = alloca i8*, align 8
  %8 = alloca %"class.std::basic_string"*, align 8
  %9 = alloca %"class.std::allocator", align 1
  store %"class.std::allocator"* %3, %"class.std::allocator"** %5, align 8
  store i8* %2, i8** %6, align 8
  store i8* %1, i8** %7, align 8
  store %"class.std::basic_string"* %0, %"class.std::basic_string"** %8, align 8
  %10 = load %"class.std::basic_string"*, %"class.std::basic_string"** %8, align 8
  %11 = bitcast %"class.std::basic_string"* %10 to %"class.std::_String_alloc"*
  %12 = load %"class.std::allocator"*, %"class.std::allocator"** %5, align 8
  %13 = call %"class.std::_String_alloc"* @"\01??$?0AEBV?$allocator@D@std@@X@?$_String_alloc@U?$_String_base_types@DV?$allocator@D@std@@@std@@@std@@QEAA@AEBV?$allocator@D@1@@Z"(%"class.std::_String_alloc"* %11, %"class.std::allocator"* dereferenceable(1) %12)
  invoke void @"\01?_Tidy_init@?$basic_string@DU?$char_traits@D@std@@V?$allocator@D@2@@std@@QEAAXXZ"(%"class.std::basic_string"* %10)
          to label %14 unwind label %25

; <label>:14:                                     ; preds = %4
  invoke void @"\01??$_Adl_verify_range@PEADPEAD@std@@YAXAEBQEAD0@Z"(i8** dereferenceable(8) %7, i8** dereferenceable(8) %6)
          to label %15 unwind label %25

; <label>:15:                                     ; preds = %14
  %16 = load i8*, i8** %6, align 8
  %17 = invoke i8* @"\01??$_Get_unwrapped@D@std@@YAPEADQEAD@Z"(i8* %16)
          to label %18 unwind label %25

; <label>:18:                                     ; preds = %15
  %19 = load i8*, i8** %7, align 8
  %20 = invoke i8* @"\01??$_Get_unwrapped@D@std@@YAPEADQEAD@Z"(i8* %19)
          to label %21 unwind label %25

; <label>:21:                                     ; preds = %18
  %22 = getelementptr inbounds %"class.std::allocator", %"class.std::allocator"* %9, i32 0, i32 0
  %23 = load i8, i8* %22, align 1
  invoke void @"\01?_Construct@?$basic_string@DU?$char_traits@D@std@@V?$allocator@D@2@@std@@QEAAXQEAD0Urandom_access_iterator_tag@2@@Z"(%"class.std::basic_string"* %10, i8* %20, i8* %17, i8 %23)
          to label %24 unwind label %25

; <label>:24:                                     ; preds = %21
  ret %"class.std::basic_string"* %10

; <label>:25:                                     ; preds = %21, %18, %15, %14, %4
  %26 = cleanuppad within none []
  %27 = bitcast %"class.std::basic_string"* %10 to %"class.std::_String_alloc"*
  call void @"\01??1?$_String_alloc@U?$_String_base_types@DV?$allocator@D@std@@@std@@@std@@QEAA@XZ"(%"class.std::_String_alloc"* %27) #9 [ "funclet"(token %26) ]
  cleanupret from %26 unwind to caller
}

; Function Attrs: noinline optnone uwtable
define linkonce_odr %"class.std::_String_alloc"* @"\01??$?0AEBV?$allocator@D@std@@X@?$_String_alloc@U?$_String_base_types@DV?$allocator@D@std@@@std@@@std@@QEAA@AEBV?$allocator@D@1@@Z"(%"class.std::_String_alloc"* returned, %"class.std::allocator"* dereferenceable(1)) unnamed_addr #0 comdat align 2 {
  %3 = alloca %"class.std::allocator"*, align 8
  %4 = alloca %"class.std::_String_alloc"*, align 8
  %5 = alloca %"class.std::allocator", align 1
  store %"class.std::allocator"* %1, %"class.std::allocator"** %3, align 8
  store %"class.std::_String_alloc"* %0, %"class.std::_String_alloc"** %4, align 8
  %6 = load %"class.std::_String_alloc"*, %"class.std::_String_alloc"** %4, align 8
  %7 = getelementptr inbounds %"class.std::_String_alloc", %"class.std::_String_alloc"* %6, i32 0, i32 0
  %8 = load %"class.std::allocator"*, %"class.std::allocator"** %3, align 8
  %9 = call dereferenceable(1) %"class.std::allocator"* @"\01??$forward@AEBV?$allocator@D@std@@@std@@YAAEBV?$allocator@D@0@AEBV10@@Z"(%"class.std::allocator"* dereferenceable(1) %8) #9
  %10 = getelementptr inbounds %"class.std::allocator", %"class.std::allocator"* %5, i32 0, i32 0
  %11 = load i8, i8* %10, align 1
  %12 = call %"class.std::_Compressed_pair"* @"\01??$?0AEBV?$allocator@D@std@@$$V@?$_Compressed_pair@V?$allocator@D@std@@V?$_String_val@U?$_Simple_types@D@std@@@2@$00@std@@QEAA@U_One_then_variadic_args_t@1@AEBV?$allocator@D@1@@Z"(%"class.std::_Compressed_pair"* %7, i8 %11, %"class.std::allocator"* dereferenceable(1) %9)
  ret %"class.std::_String_alloc"* %6
}

; Function Attrs: noinline optnone uwtable
define linkonce_odr void @"\01??$_Adl_verify_range@PEADPEAD@std@@YAXAEBQEAD0@Z"(i8** dereferenceable(8), i8** dereferenceable(8)) #0 comdat {
  %3 = alloca i8**, align 8
  %4 = alloca i8**, align 8
  %5 = alloca %"class.std::allocator", align 1
  store i8** %1, i8*** %3, align 8
  store i8** %0, i8*** %4, align 8
  %6 = load i8**, i8*** %3, align 8
  %7 = load i8**, i8*** %4, align 8
  %8 = getelementptr inbounds %"class.std::allocator", %"class.std::allocator"* %5, i32 0, i32 0
  %9 = load i8, i8* %8, align 1
  call void @"\01??$_Adl_verify_range1@PEADPEAD@std@@YAXAEBQEAD0U?$integral_constant@_N$0A@@0@@Z"(i8** dereferenceable(8) %7, i8** dereferenceable(8) %6, i8 %9)
  ret void
}

; Function Attrs: noinline nounwind optnone uwtable
define linkonce_odr i8* @"\01??$_Get_unwrapped@D@std@@YAPEADQEAD@Z"(i8*) #1 comdat {
  %2 = alloca i8*, align 8
  store i8* %0, i8** %2, align 8
  %3 = load i8*, i8** %2, align 8
  ret i8* %3
}

; Function Attrs: noinline optnone uwtable
define linkonce_odr void @"\01?_Construct@?$basic_string@DU?$char_traits@D@std@@V?$allocator@D@2@@std@@QEAAXQEAD0Urandom_access_iterator_tag@2@@Z"(%"class.std::basic_string"*, i8*, i8*, i8) #0 comdat align 2 {
  %5 = alloca %"class.std::allocator", align 1
  %6 = alloca i8*, align 8
  %7 = alloca i8*, align 8
  %8 = alloca %"class.std::basic_string"*, align 8
  %9 = getelementptr inbounds %"class.std::allocator", %"class.std::allocator"* %5, i32 0, i32 0
  store i8 %3, i8* %9, align 1
  store i8* %2, i8** %6, align 8
  store i8* %1, i8** %7, align 8
  store %"class.std::basic_string"* %0, %"class.std::basic_string"** %8, align 8
  %10 = load %"class.std::basic_string"*, %"class.std::basic_string"** %8, align 8
  %11 = load i8*, i8** %7, align 8
  %12 = load i8*, i8** %6, align 8
  %13 = icmp ne i8* %11, %12
  br i1 %13, label %14, label %23

; <label>:14:                                     ; preds = %4
  %15 = load i8*, i8** %6, align 8
  %16 = load i8*, i8** %7, align 8
  %17 = ptrtoint i8* %15 to i64
  %18 = ptrtoint i8* %16 to i64
  %19 = sub i64 %17, %18
  %20 = call i64 @"\01??$_Convert_size@_K@std@@YA_K_K@Z"(i64 %19)
  %21 = load i8*, i8** %7, align 8
  %22 = call dereferenceable(32) %"class.std::basic_string"* @"\01?assign@?$basic_string@DU?$char_traits@D@std@@V?$allocator@D@2@@std@@QEAAAEAV12@QEBD_K@Z"(%"class.std::basic_string"* %10, i8* %21, i64 %20)
  br label %23

; <label>:23:                                     ; preds = %14, %4
  ret void
}

; Function Attrs: noinline optnone uwtable
define linkonce_odr dereferenceable(32) %"class.std::basic_string"* @"\01?assign@?$basic_string@DU?$char_traits@D@std@@V?$allocator@D@2@@std@@QEAAAEAV12@QEBD_K@Z"(%"class.std::basic_string"*, i8*, i64) #0 comdat align 2 {
  %4 = alloca %"class.std::basic_string"*, align 8
  %5 = alloca i64, align 8
  %6 = alloca i8*, align 8
  %7 = alloca %"class.std::basic_string"*, align 8
  %8 = alloca %"class.std::_String_val"*, align 8
  %9 = alloca i8*, align 8
  %10 = alloca i8, align 1
  %11 = alloca %"class.std::allocator", align 1
  store i64 %2, i64* %5, align 8
  store i8* %1, i8** %6, align 8
  store %"class.std::basic_string"* %0, %"class.std::basic_string"** %7, align 8
  %12 = load %"class.std::basic_string"*, %"class.std::basic_string"** %7, align 8
  %13 = bitcast %"class.std::basic_string"* %12 to %"class.std::_String_alloc"*
  %14 = call dereferenceable(32) %"class.std::_String_val"* @"\01?_Get_data@?$_String_alloc@U?$_String_base_types@DV?$allocator@D@std@@@std@@@std@@QEAAAEAV?$_String_val@U?$_Simple_types@D@std@@@2@XZ"(%"class.std::_String_alloc"* %13) #9
  store %"class.std::_String_val"* %14, %"class.std::_String_val"** %8, align 8
  %15 = load i64, i64* %5, align 8
  %16 = load %"class.std::_String_val"*, %"class.std::_String_val"** %8, align 8
  %17 = getelementptr inbounds %"class.std::_String_val", %"class.std::_String_val"* %16, i32 0, i32 2
  %18 = load i64, i64* %17, align 8
  %19 = icmp ule i64 %15, %18
  br i1 %19, label %20, label %33

; <label>:20:                                     ; preds = %3
  %21 = load %"class.std::_String_val"*, %"class.std::_String_val"** %8, align 8
  %22 = call i8* @"\01?_Myptr@?$_String_val@U?$_Simple_types@D@std@@@std@@QEAAPEADXZ"(%"class.std::_String_val"* %21)
  store i8* %22, i8** %9, align 8
  %23 = load i64, i64* %5, align 8
  %24 = load %"class.std::_String_val"*, %"class.std::_String_val"** %8, align 8
  %25 = getelementptr inbounds %"class.std::_String_val", %"class.std::_String_val"* %24, i32 0, i32 1
  store i64 %23, i64* %25, align 8
  %26 = load i64, i64* %5, align 8
  %27 = load i8*, i8** %6, align 8
  %28 = load i8*, i8** %9, align 8
  %29 = call i8* @"\01?move@?$char_traits@D@std@@SAPEADQEADQEBD_K@Z"(i8* %28, i8* %27, i64 %26) #9
  store i8 0, i8* %10, align 1
  %30 = load i8*, i8** %9, align 8
  %31 = load i64, i64* %5, align 8
  %32 = getelementptr inbounds i8, i8* %30, i64 %31
  call void @"\01?assign@?$char_traits@D@std@@SAXAEADAEBD@Z"(i8* dereferenceable(1) %32, i8* dereferenceable(1) %10) #9
  store %"class.std::basic_string"* %12, %"class.std::basic_string"** %4, align 8
  br label %39

; <label>:33:                                     ; preds = %3
  %34 = load i8*, i8** %6, align 8
  %35 = load i64, i64* %5, align 8
  %36 = getelementptr inbounds %"class.std::allocator", %"class.std::allocator"* %11, i32 0, i32 0
  %37 = load i8, i8* %36, align 1
  %38 = call dereferenceable(32) %"class.std::basic_string"* @"\01??$_Reallocate_for@V<lambda_1>@?0??assign@?$basic_string@DU?$char_traits@D@std@@V?$allocator@D@2@@std@@QEAAAEAV34@QEBD_K@Z@PEBD@?$basic_string@DU?$char_traits@D@std@@V?$allocator@D@2@@std@@QEAAAEAV01@_KV<lambda_1>@?0??assign@01@QEAAAEAV01@QEBD0@Z@PEBD@Z"(%"class.std::basic_string"* %12, i64 %35, i8 %37, i8* %34)
  store %"class.std::basic_string"* %38, %"class.std::basic_string"** %4, align 8
  br label %39

; <label>:39:                                     ; preds = %33, %20
  %40 = load %"class.std::basic_string"*, %"class.std::basic_string"** %4, align 8
  ret %"class.std::basic_string"* %40
}

; Function Attrs: noinline optnone uwtable
define linkonce_odr dereferenceable(32) %"class.std::basic_string"* @"\01??$_Reallocate_for@V<lambda_1>@?0??assign@?$basic_string@DU?$char_traits@D@std@@V?$allocator@D@2@@std@@QEAAAEAV34@QEBD_K@Z@PEBD@?$basic_string@DU?$char_traits@D@std@@V?$allocator@D@2@@std@@QEAAAEAV01@_KV<lambda_1>@?0??assign@01@QEAAAEAV01@QEBD0@Z@PEBD@Z"(%"class.std::basic_string"*, i64, i8, i8*) #0 comdat align 2 {
  %5 = alloca %"class.std::allocator", align 1
  %6 = alloca i8*, align 8
  %7 = alloca i64, align 8
  %8 = alloca %"class.std::basic_string"*, align 8
  %9 = alloca %"class.std::_String_val"*, align 8
  %10 = alloca i64, align 8
  %11 = alloca i64, align 8
  %12 = alloca %"class.std::allocator"*, align 8
  %13 = alloca i8*, align 8
  %14 = getelementptr inbounds %"class.std::allocator", %"class.std::allocator"* %5, i32 0, i32 0
  store i8 %2, i8* %14, align 1
  store i8* %3, i8** %6, align 8
  store i64 %1, i64* %7, align 8
  store %"class.std::basic_string"* %0, %"class.std::basic_string"** %8, align 8
  %15 = load %"class.std::basic_string"*, %"class.std::basic_string"** %8, align 8
  %16 = load i64, i64* %7, align 8
  %17 = call i64 @"\01?max_size@?$basic_string@DU?$char_traits@D@std@@V?$allocator@D@2@@std@@QEBA_KXZ"(%"class.std::basic_string"* %15) #9
  %18 = icmp ugt i64 %16, %17
  br i1 %18, label %19, label %20

; <label>:19:                                     ; preds = %4
  call void @"\01?_Xlen@?$basic_string@DU?$char_traits@D@std@@V?$allocator@D@2@@std@@SAXXZ"() #13
  unreachable

; <label>:20:                                     ; preds = %4
  %21 = bitcast %"class.std::basic_string"* %15 to %"class.std::_String_alloc"*
  %22 = call dereferenceable(32) %"class.std::_String_val"* @"\01?_Get_data@?$_String_alloc@U?$_String_base_types@DV?$allocator@D@std@@@std@@@std@@QEAAAEAV?$_String_val@U?$_Simple_types@D@std@@@2@XZ"(%"class.std::_String_alloc"* %21) #9
  store %"class.std::_String_val"* %22, %"class.std::_String_val"** %9, align 8
  %23 = load %"class.std::_String_val"*, %"class.std::_String_val"** %9, align 8
  %24 = getelementptr inbounds %"class.std::_String_val", %"class.std::_String_val"* %23, i32 0, i32 2
  %25 = load i64, i64* %24, align 8
  store i64 %25, i64* %10, align 8
  %26 = load i64, i64* %7, align 8
  %27 = call i64 @"\01?_Calculate_growth@?$basic_string@DU?$char_traits@D@std@@V?$allocator@D@2@@std@@QEBA_K_K@Z"(%"class.std::basic_string"* %15, i64 %26)
  store i64 %27, i64* %11, align 8
  %28 = bitcast %"class.std::basic_string"* %15 to %"class.std::_String_alloc"*
  %29 = call dereferenceable(1) %"class.std::allocator"* @"\01?_Getal@?$_String_alloc@U?$_String_base_types@DV?$allocator@D@std@@@std@@@std@@QEAAAEAV?$allocator@D@2@XZ"(%"class.std::_String_alloc"* %28) #9
  store %"class.std::allocator"* %29, %"class.std::allocator"** %12, align 8
  %30 = load %"class.std::allocator"*, %"class.std::allocator"** %12, align 8
  %31 = load i64, i64* %11, align 8
  %32 = add i64 %31, 1
  %33 = call i8* @"\01?allocate@?$allocator@D@std@@QEAAPEAD_K@Z"(%"class.std::allocator"* %30, i64 %32)
  store i8* %33, i8** %13, align 8
  %34 = load %"class.std::_String_val"*, %"class.std::_String_val"** %9, align 8
  %35 = bitcast %"class.std::_String_val"* %34 to %"class.std::allocator"*
  call void @"\01?_Orphan_all@_Container_base0@std@@QEAAXXZ"(%"class.std::allocator"* %35) #9
  %36 = load i64, i64* %7, align 8
  %37 = load %"class.std::_String_val"*, %"class.std::_String_val"** %9, align 8
  %38 = getelementptr inbounds %"class.std::_String_val", %"class.std::_String_val"* %37, i32 0, i32 1
  store i64 %36, i64* %38, align 8
  %39 = load i64, i64* %11, align 8
  %40 = load %"class.std::_String_val"*, %"class.std::_String_val"** %9, align 8
  %41 = getelementptr inbounds %"class.std::_String_val", %"class.std::_String_val"* %40, i32 0, i32 2
  store i64 %39, i64* %41, align 8
  %42 = load i8*, i8** %6, align 8
  %43 = load i64, i64* %7, align 8
  %44 = load i8*, i8** %13, align 8
  %45 = call i8* @"\01??$_Unfancy@D@std@@YAPEADPEAD@Z"(i8* %44)
  call void @"\01??R<lambda_1>@?0??assign@?$basic_string@DU?$char_traits@D@std@@V?$allocator@D@2@@std@@QEAAAEAV23@QEBD_K@Z@QEBA?A?<auto>@@QEAD10@Z"(%"class.std::allocator"* %5, i8* %45, i64 %43, i8* %42)
  %46 = load i64, i64* %10, align 8
  %47 = icmp ule i64 16, %46
  br i1 %47, label %48, label %60

; <label>:48:                                     ; preds = %20
  %49 = load %"class.std::allocator"*, %"class.std::allocator"** %12, align 8
  %50 = load i64, i64* %10, align 8
  %51 = add i64 %50, 1
  %52 = load %"class.std::_String_val"*, %"class.std::_String_val"** %9, align 8
  %53 = getelementptr inbounds %"class.std::_String_val", %"class.std::_String_val"* %52, i32 0, i32 0
  %54 = bitcast %"union.std::_String_val<std::_Simple_types<char> >::_Bxty"* %53 to i8**
  %55 = load i8*, i8** %54, align 8
  call void @"\01?deallocate@?$allocator@D@std@@QEAAXQEAD_K@Z"(%"class.std::allocator"* %49, i8* %55, i64 %51)
  %56 = load i8*, i8** %13, align 8
  %57 = load %"class.std::_String_val"*, %"class.std::_String_val"** %9, align 8
  %58 = getelementptr inbounds %"class.std::_String_val", %"class.std::_String_val"* %57, i32 0, i32 0
  %59 = bitcast %"union.std::_String_val<std::_Simple_types<char> >::_Bxty"* %58 to i8**
  store i8* %56, i8** %59, align 8
  br label %66

; <label>:60:                                     ; preds = %20
  %61 = load %"class.std::_String_val"*, %"class.std::_String_val"** %9, align 8
  %62 = getelementptr inbounds %"class.std::_String_val", %"class.std::_String_val"* %61, i32 0, i32 0
  %63 = bitcast %"union.std::_String_val<std::_Simple_types<char> >::_Bxty"* %62 to i8**
  %64 = call i8** @"\01??$addressof@PEAD@std@@YAPEAPEADAEAPEAD@Z"(i8** dereferenceable(8) %63) #9
  %65 = load %"class.std::allocator"*, %"class.std::allocator"** %12, align 8
  call void @"\01??$construct@PEADAEBQEAD@?$_Default_allocator_traits@V?$allocator@D@std@@@std@@SAXAEAV?$allocator@D@1@QEAPEADAEBQEAD@Z"(%"class.std::allocator"* dereferenceable(1) %65, i8** %64, i8** dereferenceable(8) %13)
  br label %66

; <label>:66:                                     ; preds = %60, %48
  ret %"class.std::basic_string"* %15
}

; Function Attrs: noinline nounwind optnone uwtable
define linkonce_odr void @"\01??R<lambda_1>@?0??assign@?$basic_string@DU?$char_traits@D@std@@V?$allocator@D@2@@std@@QEAAAEAV23@QEBD_K@Z@QEBA?A?<auto>@@QEAD10@Z"(%"class.std::allocator"*, i8*, i64, i8*) #1 comdat align 2 {
  %5 = alloca i8*, align 8
  %6 = alloca i64, align 8
  %7 = alloca i8*, align 8
  %8 = alloca %"class.std::allocator"*, align 8
  %9 = alloca i8, align 1
  store i8* %3, i8** %5, align 8
  store i64 %2, i64* %6, align 8
  store i8* %1, i8** %7, align 8
  store %"class.std::allocator"* %0, %"class.std::allocator"** %8, align 8
  %10 = load %"class.std::allocator"*, %"class.std::allocator"** %8, align 8
  %11 = load i64, i64* %6, align 8
  %12 = load i8*, i8** %5, align 8
  %13 = load i8*, i8** %7, align 8
  %14 = call i8* @"\01?copy@?$char_traits@D@std@@SAPEADQEADQEBD_K@Z"(i8* %13, i8* %12, i64 %11) #9
  store i8 0, i8* %9, align 1
  %15 = load i8*, i8** %7, align 8
  %16 = load i64, i64* %6, align 8
  %17 = getelementptr inbounds i8, i8* %15, i64 %16
  call void @"\01?assign@?$char_traits@D@std@@SAXAEADAEBD@Z"(i8* dereferenceable(1) %17, i8* dereferenceable(1) %9) #9
  ret void
}

; Function Attrs: noinline nounwind optnone uwtable
define linkonce_odr void @"\01??$_Adl_verify_range1@PEADPEAD@std@@YAXAEBQEAD0U?$integral_constant@_N$0A@@0@@Z"(i8** dereferenceable(8), i8** dereferenceable(8), i8) #1 comdat {
  %4 = alloca %"class.std::allocator", align 1
  %5 = alloca i8**, align 8
  %6 = alloca i8**, align 8
  %7 = getelementptr inbounds %"class.std::allocator", %"class.std::allocator"* %4, i32 0, i32 0
  store i8 %2, i8* %7, align 1
  store i8** %1, i8*** %5, align 8
  store i8** %0, i8*** %6, align 8
  ret void
}

; Function Attrs: noinline nounwind optnone uwtable
define linkonce_odr dereferenceable(1) %"class.std::allocator"* @"\01??$forward@AEBV?$allocator@D@std@@@std@@YAAEBV?$allocator@D@0@AEBV10@@Z"(%"class.std::allocator"* dereferenceable(1)) #1 comdat {
  %2 = alloca %"class.std::allocator"*, align 8
  store %"class.std::allocator"* %0, %"class.std::allocator"** %2, align 8
  %3 = load %"class.std::allocator"*, %"class.std::allocator"** %2, align 8
  ret %"class.std::allocator"* %3
}

; Function Attrs: noinline optnone uwtable
define linkonce_odr %"class.std::_Compressed_pair"* @"\01??$?0AEBV?$allocator@D@std@@$$V@?$_Compressed_pair@V?$allocator@D@std@@V?$_String_val@U?$_Simple_types@D@std@@@2@$00@std@@QEAA@U_One_then_variadic_args_t@1@AEBV?$allocator@D@1@@Z"(%"class.std::_Compressed_pair"* returned, i8, %"class.std::allocator"* dereferenceable(1)) unnamed_addr #0 comdat align 2 {
  %4 = alloca %"class.std::allocator", align 1
  %5 = alloca %"class.std::allocator"*, align 8
  %6 = alloca %"class.std::_Compressed_pair"*, align 8
  %7 = getelementptr inbounds %"class.std::allocator", %"class.std::allocator"* %4, i32 0, i32 0
  store i8 %1, i8* %7, align 1
  store %"class.std::allocator"* %2, %"class.std::allocator"** %5, align 8
  store %"class.std::_Compressed_pair"* %0, %"class.std::_Compressed_pair"** %6, align 8
  %8 = load %"class.std::_Compressed_pair"*, %"class.std::_Compressed_pair"** %6, align 8
  %9 = bitcast %"class.std::_Compressed_pair"* %8 to %"class.std::allocator"*
  %10 = load %"class.std::allocator"*, %"class.std::allocator"** %5, align 8
  %11 = call dereferenceable(1) %"class.std::allocator"* @"\01??$forward@AEBV?$allocator@D@std@@@std@@YAAEBV?$allocator@D@0@AEBV10@@Z"(%"class.std::allocator"* dereferenceable(1) %10) #9
  %12 = getelementptr inbounds %"class.std::_Compressed_pair", %"class.std::_Compressed_pair"* %8, i32 0, i32 0
  %13 = call %"class.std::_String_val"* @"\01??0?$_String_val@U?$_Simple_types@D@std@@@std@@QEAA@XZ"(%"class.std::_String_val"* %12)
  ret %"class.std::_Compressed_pair"* %8
}

; Function Attrs: nounwind
declare void @llvm.va_start(i8*) #9

declare %"class.google::protobuf::internal::InternalMetadataWithArenaBase"* @__acrt_iob_func(i32) #2

; Function Attrs: noinline optnone uwtable
define linkonce_odr i32 @_vfprintf_l(%"class.google::protobuf::internal::InternalMetadataWithArenaBase"*, i8*, %struct.__crt_locale_pointers*, i8*) #0 comdat {
  %5 = alloca i8*, align 8
  %6 = alloca %struct.__crt_locale_pointers*, align 8
  %7 = alloca i8*, align 8
  %8 = alloca %"class.google::protobuf::internal::InternalMetadataWithArenaBase"*, align 8
  store i8* %3, i8** %5, align 8
  store %struct.__crt_locale_pointers* %2, %struct.__crt_locale_pointers** %6, align 8
  store i8* %1, i8** %7, align 8
  store %"class.google::protobuf::internal::InternalMetadataWithArenaBase"* %0, %"class.google::protobuf::internal::InternalMetadataWithArenaBase"** %8, align 8
  %9 = load i8*, i8** %5, align 8
  %10 = load %struct.__crt_locale_pointers*, %struct.__crt_locale_pointers** %6, align 8
  %11 = load i8*, i8** %7, align 8
  %12 = load %"class.google::protobuf::internal::InternalMetadataWithArenaBase"*, %"class.google::protobuf::internal::InternalMetadataWithArenaBase"** %8, align 8
  %13 = call i64* @__local_stdio_printf_options()
  %14 = load i64, i64* %13, align 8
  %15 = call i32 @__stdio_common_vfprintf(i64 %14, %"class.google::protobuf::internal::InternalMetadataWithArenaBase"* %12, i8* %11, %struct.__crt_locale_pointers* %10, i8* %9)
  ret i32 %15
}

; Function Attrs: noinline nounwind optnone uwtable
define linkonce_odr i64* @__local_stdio_printf_options() #1 comdat {
  ret i64* @"\01?_OptionsStorage@?1??__local_stdio_printf_options@@9@4_KA"
}

declare i32 @__stdio_common_vfprintf(i64, %"class.google::protobuf::internal::InternalMetadataWithArenaBase"*, i8*, %struct.__crt_locale_pointers*, i8*) #2

declare i32 @ReadVarBool(i8*, i32, i8*)

declare i32 @WriteVarBool(i8*, i32, i1)

declare i32 @ReadVarUint32(i8*, i32, i32*)

declare i32 @WriteVarUint32(i8*, i32, i32)

declare i32 @ReadVarUint64(i8*, i32, i64*)

declare i32 @WriteVarUint64(i8*, i32, i64)

declare i32 @ReadVarFloat(i8*, i32, float*)

declare i32 @WriteVarFloat(i8*, i32, float)

declare i32 @ReadVarDouble(i8*, i32, double*)

declare i32 @WriteVarDouble(i8*, i32, double)

declare i1 @"\01?ParseFromArray@MessageLite@protobuf@google@@QEAA_NPEBXH@Z"(%"class.google::protobuf::MessageLite"*, i8*, i32)

declare i1 @"\01?SerializeToArray@MessageLite@protobuf@google@@QEBA_NPEAXH@Z"(%"class.google::protobuf::MessageLite"*, i8*, i32)

declare void @"\01??0Message@protobuf@google@@QEAA@XZ"(%"class.google::protobuf::Message"*)

declare void @"\01??1Message@protobuf@google@@UEAA@XZ"(%"class.google::protobuf::Message"*)

declare i64 @"\01?ByteSizeLong@Message@protobuf@google@@UEBA_KXZ"(%"class.google::protobuf::Message"*)

declare i8* @malloc(i64)

define i32 @PlatON_entry_TestBarAdd01(i8**, i8**, i32*) {
  %4 = alloca %"class.simpleproto2::Bar"
  %5 = alloca %"class.simpleproto2::Bar"
  call void bitcast (%"class.simpleproto2::Bar.23"* (%"class.simpleproto2::Bar.23"*)* @"\01??0Bar@simpleproto2@@QEAA@XZ" to void (%"class.simpleproto2::Bar"*)*)(%"class.simpleproto2::Bar"* %5)
  %6 = bitcast %"class.simpleproto2::Bar"* %5 to %"class.google::protobuf::MessageLite"*
  %7 = getelementptr i8*, i8** %1, i32 0
  %8 = load i8*, i8** %7
  %9 = getelementptr i32, i32* %2, i32 0
  %10 = load i32, i32* %9
  %11 = call i1 @"\01?ParseFromArray@MessageLite@protobuf@google@@QEAA_NPEBXH@Z"(%"class.google::protobuf::MessageLite"* %6, i8* %8, i32 %10)
  %12 = alloca %"class.simpleproto2::Bar"
  call void bitcast (%"class.simpleproto2::Bar.23"* (%"class.simpleproto2::Bar.23"*)* @"\01??0Bar@simpleproto2@@QEAA@XZ" to void (%"class.simpleproto2::Bar"*)*)(%"class.simpleproto2::Bar"* %12)
  %13 = bitcast %"class.simpleproto2::Bar"* %12 to %"class.google::protobuf::MessageLite"*
  %14 = getelementptr i8*, i8** %1, i32 1
  %15 = load i8*, i8** %14
  %16 = getelementptr i32, i32* %2, i32 1
  %17 = load i32, i32* %16
  %18 = call i1 @"\01?ParseFromArray@MessageLite@protobuf@google@@QEAA_NPEBXH@Z"(%"class.google::protobuf::MessageLite"* %13, i8* %15, i32 %17)
  call void @"\01?TestBarAdd01@@YA?AVBar@simpleproto2@@AEBV12@0@Z"(%"class.simpleproto2::Bar"* %4, %"class.simpleproto2::Bar"* %5, %"class.simpleproto2::Bar"* %12)
  %19 = bitcast %"class.simpleproto2::Bar"* %4 to %"class.google::protobuf::MessageLite"*
  %20 = call i64 bitcast (i64 (%"class.simpleproto2::Bar.23"*)* @"\01?ByteSizeLong@Bar@simpleproto2@@UEBA_KXZ" to i64 (%"class.simpleproto2::Bar"*)*)(%"class.simpleproto2::Bar"* %4)
  %21 = trunc i64 %20 to i32
  %22 = call i8* @malloc(i64 %20)
  store i8* %22, i8** %0
  %23 = call i1 @"\01?SerializeToArray@MessageLite@protobuf@google@@QEBA_NPEAXH@Z"(%"class.google::protobuf::MessageLite"* %19, i8* %22, i32 %21)
  call void bitcast (void (%"class.simpleproto2::Bar.23"*)* @"\01??1Bar@simpleproto2@@UEAA@XZ" to void (%"class.simpleproto2::Bar"*)*)(%"class.simpleproto2::Bar"* %4)
  call void bitcast (void (%"class.simpleproto2::Bar.23"*)* @"\01??1Bar@simpleproto2@@UEAA@XZ" to void (%"class.simpleproto2::Bar"*)*)(%"class.simpleproto2::Bar"* %5)
  call void bitcast (void (%"class.simpleproto2::Bar.23"*)* @"\01??1Bar@simpleproto2@@UEAA@XZ" to void (%"class.simpleproto2::Bar"*)*)(%"class.simpleproto2::Bar"* %12)
  ret i32 %21
}

define void @PlatON_entry_free(i8*) {
  tail call void @free(i8* %0)
  ret void
}

declare void @free(i8*)

; Function Attrs: noinline optnone uwtable
define void @"\01?InitDefaultsFooImpl@protobuf_SimpleProtoLite2_2eproto@@YAXXZ"() #0 {
  %1 = alloca i8*, align 8
  call void @"\01?VerifyVersion@internal@protobuf@google@@YAXHHPEBD@Z"(i32 3005001, i32 3005000, i8* getelementptr inbounds ([78 x i8], [78 x i8]* @"\01??_C@_0EO@CHGOICEJ@E?3?2work?2local?2private?9contract?9s@", i32 0, i32 0))
  call void @"\01?InitProtobufDefaults@internal@protobuf@google@@YAXXZ"()
  store i8* bitcast (%"class.simpleproto2::FooDefaultTypeInternal"* @"\01?_Foo_default_instance_@simpleproto2@@3VFooDefaultTypeInternal@1@A" to i8*), i8** %1, align 8
  %2 = load i8*, i8** %1, align 8
  %3 = bitcast i8* %2 to %"class.simpleproto2::Foo.11"*
  %4 = call %"class.simpleproto2::Foo.11"* @"\01??0Foo@simpleproto2@@QEAA@XZ"(%"class.simpleproto2::Foo.11"* %3)
  %5 = load i8*, i8** %1, align 8
  call void @"\01?OnShutdownDestroyMessage@internal@protobuf@google@@YAXPEBX@Z"(i8* %5)
  call void @"\01?InitAsDefaultInstance@Foo@simpleproto2@@SAXXZ"()
  ret void
}

declare void @"\01?VerifyVersion@internal@protobuf@google@@YAXHHPEBD@Z"(i32, i32, i8*) #2

declare void @"\01?InitProtobufDefaults@internal@protobuf@google@@YAXXZ"() #2

; Function Attrs: noinline optnone uwtable
define %"class.simpleproto2::Foo.11"* @"\01??0Foo@simpleproto2@@QEAA@XZ"(%"class.simpleproto2::Foo.11"* returned) unnamed_addr #0 align 2 personality i8* bitcast (i32 (...)* @__CxxFrameHandler3 to i8*) {
  %2 = alloca %"class.simpleproto2::Foo.11"*, align 8
  %3 = alloca %"class.simpleproto2::Foo.11"*, align 8
  store %"class.simpleproto2::Foo.11"* %0, %"class.simpleproto2::Foo.11"** %3, align 8
  %4 = load %"class.simpleproto2::Foo.11"*, %"class.simpleproto2::Foo.11"** %3, align 8
  store %"class.simpleproto2::Foo.11"* %4, %"class.simpleproto2::Foo.11"** %2, align 8
  %5 = bitcast %"class.simpleproto2::Foo.11"* %4 to %"class.google::protobuf::MessageLite"*
  %6 = call %"class.google::protobuf::MessageLite"* @"\01??0MessageLite@protobuf@google@@QEAA@XZ"(%"class.google::protobuf::MessageLite"* %5)
  %7 = bitcast %"class.simpleproto2::Foo.11"* %4 to i32 (...)***
  store i32 (...)** bitcast (i8** @"\01??_7Foo@simpleproto2@@6B@" to i32 (...)**), i32 (...)*** %7, align 8
  %8 = getelementptr inbounds %"class.simpleproto2::Foo.11", %"class.simpleproto2::Foo.11"* %4, i32 0, i32 1
  %9 = invoke %"class.google::protobuf::internal::InternalMetadataWithArena"* @"\01??0InternalMetadataWithArenaLite@internal@protobuf@google@@QEAA@PEAVArena@23@@Z"(%"class.google::protobuf::internal::InternalMetadataWithArena"* %8, %"class.google::protobuf::Arena"* null)
          to label %10 unwind label %22

; <label>:10:                                     ; preds = %1
  %11 = getelementptr inbounds %"class.simpleproto2::Foo.11", %"class.simpleproto2::Foo.11"* %4, i32 0, i32 2
  %12 = invoke %"class.simpleproto2::Foo.11"* @"\01?internal_default_instance@Foo@simpleproto2@@SAPEBV12@XZ"()
          to label %13 unwind label %20

; <label>:13:                                     ; preds = %10
  %14 = icmp ne %"class.simpleproto2::Foo.11"* %4, %12
  br i1 %14, label %15, label %17

; <label>:15:                                     ; preds = %13
  invoke void @"\01?InitDefaultsFoo@protobuf_SimpleProtoLite2_2eproto@@YAXXZ"()
          to label %16 unwind label %20

; <label>:16:                                     ; preds = %15
  br label %17

; <label>:17:                                     ; preds = %16, %13
  invoke void @"\01?SharedCtor@Foo@simpleproto2@@AEAAXXZ"(%"class.simpleproto2::Foo.11"* %4)
          to label %18 unwind label %20

; <label>:18:                                     ; preds = %17
  %19 = load %"class.simpleproto2::Foo.11"*, %"class.simpleproto2::Foo.11"** %2, align 8
  ret %"class.simpleproto2::Foo.11"* %19

; <label>:20:                                     ; preds = %17, %15, %10
  %21 = cleanuppad within none []
